
ctarget：     文件格式 elf64-x86-64


Disassembly of section .init:

0000000000400b70 <_init>:
  400b70:	48 83 ec 08          	sub    $0x8,%rsp
  400b74:	48 8b 05 7d 34 20 00 	mov    0x20347d(%rip),%rax        # 603ff8 <__gmon_start__>
  400b7b:	48 85 c0             	test   %rax,%rax
  400b7e:	74 05                	je     400b85 <_init+0x15>
  400b80:	e8 1b 02 00 00       	callq  400da0 <__gmon_start__@plt>
  400b85:	48 83 c4 08          	add    $0x8,%rsp
  400b89:	c3                   	retq   

Disassembly of section .plt:

0000000000400b90 <.plt>:
  400b90:	ff 35 72 34 20 00    	pushq  0x203472(%rip)        # 604008 <_GLOBAL_OFFSET_TABLE_+0x8>
  400b96:	ff 25 74 34 20 00    	jmpq   *0x203474(%rip)        # 604010 <_GLOBAL_OFFSET_TABLE_+0x10>
  400b9c:	0f 1f 40 00          	nopl   0x0(%rax)

0000000000400ba0 <__errno_location@plt>:
  400ba0:	ff 25 72 34 20 00    	jmpq   *0x203472(%rip)        # 604018 <__errno_location@GLIBC_2.2.5>
  400ba6:	68 00 00 00 00       	pushq  $0x0
  400bab:	e9 e0 ff ff ff       	jmpq   400b90 <.plt>

0000000000400bb0 <srandom@plt>:
  400bb0:	ff 25 6a 34 20 00    	jmpq   *0x20346a(%rip)        # 604020 <srandom@GLIBC_2.2.5>
  400bb6:	68 01 00 00 00       	pushq  $0x1
  400bbb:	e9 d0 ff ff ff       	jmpq   400b90 <.plt>

0000000000400bc0 <strncmp@plt>:
  400bc0:	ff 25 62 34 20 00    	jmpq   *0x203462(%rip)        # 604028 <strncmp@GLIBC_2.2.5>
  400bc6:	68 02 00 00 00       	pushq  $0x2
  400bcb:	e9 c0 ff ff ff       	jmpq   400b90 <.plt>

0000000000400bd0 <strcpy@plt>:
  400bd0:	ff 25 5a 34 20 00    	jmpq   *0x20345a(%rip)        # 604030 <strcpy@GLIBC_2.2.5>
  400bd6:	68 03 00 00 00       	pushq  $0x3
  400bdb:	e9 b0 ff ff ff       	jmpq   400b90 <.plt>

0000000000400be0 <puts@plt>:
  400be0:	ff 25 52 34 20 00    	jmpq   *0x203452(%rip)        # 604038 <puts@GLIBC_2.2.5>
  400be6:	68 04 00 00 00       	pushq  $0x4
  400beb:	e9 a0 ff ff ff       	jmpq   400b90 <.plt>

0000000000400bf0 <write@plt>:
  400bf0:	ff 25 4a 34 20 00    	jmpq   *0x20344a(%rip)        # 604040 <write@GLIBC_2.2.5>
  400bf6:	68 05 00 00 00       	pushq  $0x5
  400bfb:	e9 90 ff ff ff       	jmpq   400b90 <.plt>

0000000000400c00 <mmap@plt>:
  400c00:	ff 25 42 34 20 00    	jmpq   *0x203442(%rip)        # 604048 <mmap@GLIBC_2.2.5>
  400c06:	68 06 00 00 00       	pushq  $0x6
  400c0b:	e9 80 ff ff ff       	jmpq   400b90 <.plt>

0000000000400c10 <printf@plt>:
  400c10:	ff 25 3a 34 20 00    	jmpq   *0x20343a(%rip)        # 604050 <printf@GLIBC_2.2.5>
  400c16:	68 07 00 00 00       	pushq  $0x7
  400c1b:	e9 70 ff ff ff       	jmpq   400b90 <.plt>

0000000000400c20 <memset@plt>:
  400c20:	ff 25 32 34 20 00    	jmpq   *0x203432(%rip)        # 604058 <memset@GLIBC_2.2.5>
  400c26:	68 08 00 00 00       	pushq  $0x8
  400c2b:	e9 60 ff ff ff       	jmpq   400b90 <.plt>

0000000000400c30 <alarm@plt>:
  400c30:	ff 25 2a 34 20 00    	jmpq   *0x20342a(%rip)        # 604060 <alarm@GLIBC_2.2.5>
  400c36:	68 09 00 00 00       	pushq  $0x9
  400c3b:	e9 50 ff ff ff       	jmpq   400b90 <.plt>

0000000000400c40 <close@plt>:
  400c40:	ff 25 22 34 20 00    	jmpq   *0x203422(%rip)        # 604068 <close@GLIBC_2.2.5>
  400c46:	68 0a 00 00 00       	pushq  $0xa
  400c4b:	e9 40 ff ff ff       	jmpq   400b90 <.plt>

0000000000400c50 <read@plt>:
  400c50:	ff 25 1a 34 20 00    	jmpq   *0x20341a(%rip)        # 604070 <read@GLIBC_2.2.5>
  400c56:	68 0b 00 00 00       	pushq  $0xb
  400c5b:	e9 30 ff ff ff       	jmpq   400b90 <.plt>

0000000000400c60 <__libc_start_main@plt>:
  400c60:	ff 25 12 34 20 00    	jmpq   *0x203412(%rip)        # 604078 <__libc_start_main@GLIBC_2.2.5>
  400c66:	68 0c 00 00 00       	pushq  $0xc
  400c6b:	e9 20 ff ff ff       	jmpq   400b90 <.plt>

0000000000400c70 <signal@plt>:
  400c70:	ff 25 0a 34 20 00    	jmpq   *0x20340a(%rip)        # 604080 <signal@GLIBC_2.2.5>
  400c76:	68 0d 00 00 00       	pushq  $0xd
  400c7b:	e9 10 ff ff ff       	jmpq   400b90 <.plt>

0000000000400c80 <gethostbyname@plt>:
  400c80:	ff 25 02 34 20 00    	jmpq   *0x203402(%rip)        # 604088 <gethostbyname@GLIBC_2.2.5>
  400c86:	68 0e 00 00 00       	pushq  $0xe
  400c8b:	e9 00 ff ff ff       	jmpq   400b90 <.plt>

0000000000400c90 <fprintf@plt>:
  400c90:	ff 25 fa 33 20 00    	jmpq   *0x2033fa(%rip)        # 604090 <fprintf@GLIBC_2.2.5>
  400c96:	68 0f 00 00 00       	pushq  $0xf
  400c9b:	e9 f0 fe ff ff       	jmpq   400b90 <.plt>

0000000000400ca0 <strtol@plt>:
  400ca0:	ff 25 f2 33 20 00    	jmpq   *0x2033f2(%rip)        # 604098 <strtol@GLIBC_2.2.5>
  400ca6:	68 10 00 00 00       	pushq  $0x10
  400cab:	e9 e0 fe ff ff       	jmpq   400b90 <.plt>

0000000000400cb0 <memcpy@plt>:
  400cb0:	ff 25 ea 33 20 00    	jmpq   *0x2033ea(%rip)        # 6040a0 <memcpy@GLIBC_2.14>
  400cb6:	68 11 00 00 00       	pushq  $0x11
  400cbb:	e9 d0 fe ff ff       	jmpq   400b90 <.plt>

0000000000400cc0 <time@plt>:
  400cc0:	ff 25 e2 33 20 00    	jmpq   *0x2033e2(%rip)        # 6040a8 <time@GLIBC_2.2.5>
  400cc6:	68 12 00 00 00       	pushq  $0x12
  400ccb:	e9 c0 fe ff ff       	jmpq   400b90 <.plt>

0000000000400cd0 <random@plt>:
  400cd0:	ff 25 da 33 20 00    	jmpq   *0x2033da(%rip)        # 6040b0 <random@GLIBC_2.2.5>
  400cd6:	68 13 00 00 00       	pushq  $0x13
  400cdb:	e9 b0 fe ff ff       	jmpq   400b90 <.plt>

0000000000400ce0 <_IO_getc@plt>:
  400ce0:	ff 25 d2 33 20 00    	jmpq   *0x2033d2(%rip)        # 6040b8 <_IO_getc@GLIBC_2.2.5>
  400ce6:	68 14 00 00 00       	pushq  $0x14
  400ceb:	e9 a0 fe ff ff       	jmpq   400b90 <.plt>

0000000000400cf0 <__isoc99_sscanf@plt>:
  400cf0:	ff 25 ca 33 20 00    	jmpq   *0x2033ca(%rip)        # 6040c0 <__isoc99_sscanf@GLIBC_2.7>
  400cf6:	68 15 00 00 00       	pushq  $0x15
  400cfb:	e9 90 fe ff ff       	jmpq   400b90 <.plt>

0000000000400d00 <munmap@plt>:
  400d00:	ff 25 c2 33 20 00    	jmpq   *0x2033c2(%rip)        # 6040c8 <munmap@GLIBC_2.2.5>
  400d06:	68 16 00 00 00       	pushq  $0x16
  400d0b:	e9 80 fe ff ff       	jmpq   400b90 <.plt>

0000000000400d10 <bcopy@plt>:
  400d10:	ff 25 ba 33 20 00    	jmpq   *0x2033ba(%rip)        # 6040d0 <bcopy@GLIBC_2.2.5>
  400d16:	68 17 00 00 00       	pushq  $0x17
  400d1b:	e9 70 fe ff ff       	jmpq   400b90 <.plt>

0000000000400d20 <fopen@plt>:
  400d20:	ff 25 b2 33 20 00    	jmpq   *0x2033b2(%rip)        # 6040d8 <fopen@GLIBC_2.2.5>
  400d26:	68 18 00 00 00       	pushq  $0x18
  400d2b:	e9 60 fe ff ff       	jmpq   400b90 <.plt>

0000000000400d30 <getopt@plt>:
  400d30:	ff 25 aa 33 20 00    	jmpq   *0x2033aa(%rip)        # 6040e0 <getopt@GLIBC_2.2.5>
  400d36:	68 19 00 00 00       	pushq  $0x19
  400d3b:	e9 50 fe ff ff       	jmpq   400b90 <.plt>

0000000000400d40 <strtoul@plt>:
  400d40:	ff 25 a2 33 20 00    	jmpq   *0x2033a2(%rip)        # 6040e8 <strtoul@GLIBC_2.2.5>
  400d46:	68 1a 00 00 00       	pushq  $0x1a
  400d4b:	e9 40 fe ff ff       	jmpq   400b90 <.plt>

0000000000400d50 <gethostname@plt>:
  400d50:	ff 25 9a 33 20 00    	jmpq   *0x20339a(%rip)        # 6040f0 <gethostname@GLIBC_2.2.5>
  400d56:	68 1b 00 00 00       	pushq  $0x1b
  400d5b:	e9 30 fe ff ff       	jmpq   400b90 <.plt>

0000000000400d60 <sprintf@plt>:
  400d60:	ff 25 92 33 20 00    	jmpq   *0x203392(%rip)        # 6040f8 <sprintf@GLIBC_2.2.5>
  400d66:	68 1c 00 00 00       	pushq  $0x1c
  400d6b:	e9 20 fe ff ff       	jmpq   400b90 <.plt>

0000000000400d70 <exit@plt>:
  400d70:	ff 25 8a 33 20 00    	jmpq   *0x20338a(%rip)        # 604100 <exit@GLIBC_2.2.5>
  400d76:	68 1d 00 00 00       	pushq  $0x1d
  400d7b:	e9 10 fe ff ff       	jmpq   400b90 <.plt>

0000000000400d80 <connect@plt>:
  400d80:	ff 25 82 33 20 00    	jmpq   *0x203382(%rip)        # 604108 <connect@GLIBC_2.2.5>
  400d86:	68 1e 00 00 00       	pushq  $0x1e
  400d8b:	e9 00 fe ff ff       	jmpq   400b90 <.plt>

0000000000400d90 <socket@plt>:
  400d90:	ff 25 7a 33 20 00    	jmpq   *0x20337a(%rip)        # 604110 <socket@GLIBC_2.2.5>
  400d96:	68 1f 00 00 00       	pushq  $0x1f
  400d9b:	e9 f0 fd ff ff       	jmpq   400b90 <.plt>

Disassembly of section .plt.got:

0000000000400da0 <__gmon_start__@plt>:
  400da0:	ff 25 52 32 20 00    	jmpq   *0x203252(%rip)        # 603ff8 <__gmon_start__>
  400da6:	66 90                	xchg   %ax,%ax

Disassembly of section .text:

0000000000400db0 <_start>:
  400db0:	31 ed                	xor    %ebp,%ebp
  400db2:	49 89 d1             	mov    %rdx,%r9
  400db5:	5e                   	pop    %rsi
  400db6:	48 89 e2             	mov    %rsp,%rdx
  400db9:	48 83 e4 f0          	and    $0xfffffffffffffff0,%rsp
  400dbd:	50                   	push   %rax
  400dbe:	54                   	push   %rsp
  400dbf:	49 c7 c0 c0 2b 40 00 	mov    $0x402bc0,%r8
  400dc6:	48 c7 c1 50 2b 40 00 	mov    $0x402b50,%rcx
  400dcd:	48 c7 c7 1b 10 40 00 	mov    $0x40101b,%rdi
  400dd4:	e8 87 fe ff ff       	callq  400c60 <__libc_start_main@plt>
  400dd9:	f4                   	hlt    
  400dda:	66 0f 1f 44 00 00    	nopw   0x0(%rax,%rax,1)

0000000000400de0 <deregister_tm_clones>:
  400de0:	b8 97 44 60 00       	mov    $0x604497,%eax
  400de5:	55                   	push   %rbp
  400de6:	48 2d 90 44 60 00    	sub    $0x604490,%rax
  400dec:	48 83 f8 0e          	cmp    $0xe,%rax
  400df0:	48 89 e5             	mov    %rsp,%rbp
  400df3:	77 02                	ja     400df7 <deregister_tm_clones+0x17>
  400df5:	5d                   	pop    %rbp
  400df6:	c3                   	retq   
  400df7:	b8 00 00 00 00       	mov    $0x0,%eax
  400dfc:	48 85 c0             	test   %rax,%rax
  400dff:	74 f4                	je     400df5 <deregister_tm_clones+0x15>
  400e01:	5d                   	pop    %rbp
  400e02:	bf 90 44 60 00       	mov    $0x604490,%edi
  400e07:	ff e0                	jmpq   *%rax
  400e09:	0f 1f 80 00 00 00 00 	nopl   0x0(%rax)

0000000000400e10 <register_tm_clones>:
  400e10:	b8 90 44 60 00       	mov    $0x604490,%eax
  400e15:	55                   	push   %rbp
  400e16:	48 2d 90 44 60 00    	sub    $0x604490,%rax
  400e1c:	48 c1 f8 03          	sar    $0x3,%rax
  400e20:	48 89 e5             	mov    %rsp,%rbp
  400e23:	48 89 c2             	mov    %rax,%rdx
  400e26:	48 c1 ea 3f          	shr    $0x3f,%rdx
  400e2a:	48 01 d0             	add    %rdx,%rax
  400e2d:	48 d1 f8             	sar    %rax
  400e30:	75 02                	jne    400e34 <register_tm_clones+0x24>
  400e32:	5d                   	pop    %rbp
  400e33:	c3                   	retq   
  400e34:	ba 00 00 00 00       	mov    $0x0,%edx
  400e39:	48 85 d2             	test   %rdx,%rdx
  400e3c:	74 f4                	je     400e32 <register_tm_clones+0x22>
  400e3e:	5d                   	pop    %rbp
  400e3f:	48 89 c6             	mov    %rax,%rsi
  400e42:	bf 90 44 60 00       	mov    $0x604490,%edi
  400e47:	ff e2                	jmpq   *%rdx
  400e49:	0f 1f 80 00 00 00 00 	nopl   0x0(%rax)

0000000000400e50 <__do_global_dtors_aux>:
  400e50:	80 3d 61 36 20 00 00 	cmpb   $0x0,0x203661(%rip)        # 6044b8 <completed.6355>
  400e57:	75 11                	jne    400e6a <__do_global_dtors_aux+0x1a>
  400e59:	55                   	push   %rbp
  400e5a:	48 89 e5             	mov    %rsp,%rbp
  400e5d:	e8 7e ff ff ff       	callq  400de0 <deregister_tm_clones>
  400e62:	5d                   	pop    %rbp
  400e63:	c6 05 4e 36 20 00 01 	movb   $0x1,0x20364e(%rip)        # 6044b8 <completed.6355>
  400e6a:	f3 c3                	repz retq 
  400e6c:	0f 1f 40 00          	nopl   0x0(%rax)

0000000000400e70 <frame_dummy>:
  400e70:	48 83 3d a8 2f 20 00 	cmpq   $0x0,0x202fa8(%rip)        # 603e20 <__JCR_END__>
  400e77:	00 
  400e78:	74 1e                	je     400e98 <frame_dummy+0x28>
  400e7a:	b8 00 00 00 00       	mov    $0x0,%eax
  400e7f:	48 85 c0             	test   %rax,%rax
  400e82:	74 14                	je     400e98 <frame_dummy+0x28>
  400e84:	55                   	push   %rbp
  400e85:	bf 20 3e 60 00       	mov    $0x603e20,%edi
  400e8a:	48 89 e5             	mov    %rsp,%rbp
  400e8d:	ff d0                	callq  *%rax
  400e8f:	5d                   	pop    %rbp
  400e90:	e9 7b ff ff ff       	jmpq   400e10 <register_tm_clones>
  400e95:	0f 1f 00             	nopl   (%rax)
  400e98:	e9 73 ff ff ff       	jmpq   400e10 <register_tm_clones>
  400e9d:	0f 1f 00             	nopl   (%rax)

0000000000400ea0 <usage>:
  400ea0:	48 83 ec 08          	sub    $0x8,%rsp
  400ea4:	48 89 fe             	mov    %rdi,%rsi
  400ea7:	83 3d 3a 36 20 00 00 	cmpl   $0x0,0x20363a(%rip)        # 6044e8 <is_checker>
  400eae:	74 39                	je     400ee9 <usage+0x49>
  400eb0:	bf e0 2b 40 00       	mov    $0x402be0,%edi
  400eb5:	b8 00 00 00 00       	mov    $0x0,%eax
  400eba:	e8 51 fd ff ff       	callq  400c10 <printf@plt>
  400ebf:	bf 18 2c 40 00       	mov    $0x402c18,%edi
  400ec4:	e8 17 fd ff ff       	callq  400be0 <puts@plt>
  400ec9:	bf 50 2d 40 00       	mov    $0x402d50,%edi
  400ece:	e8 0d fd ff ff       	callq  400be0 <puts@plt>
  400ed3:	bf 40 2c 40 00       	mov    $0x402c40,%edi
  400ed8:	e8 03 fd ff ff       	callq  400be0 <puts@plt>
  400edd:	bf 6a 2d 40 00       	mov    $0x402d6a,%edi
  400ee2:	e8 f9 fc ff ff       	callq  400be0 <puts@plt>
  400ee7:	eb 2d                	jmp    400f16 <usage+0x76>
  400ee9:	bf 86 2d 40 00       	mov    $0x402d86,%edi
  400eee:	b8 00 00 00 00       	mov    $0x0,%eax
  400ef3:	e8 18 fd ff ff       	callq  400c10 <printf@plt>
  400ef8:	bf 68 2c 40 00       	mov    $0x402c68,%edi
  400efd:	e8 de fc ff ff       	callq  400be0 <puts@plt>
  400f02:	bf 90 2c 40 00       	mov    $0x402c90,%edi
  400f07:	e8 d4 fc ff ff       	callq  400be0 <puts@plt>
  400f0c:	bf a4 2d 40 00       	mov    $0x402da4,%edi
  400f11:	e8 ca fc ff ff       	callq  400be0 <puts@plt>
  400f16:	bf 00 00 00 00       	mov    $0x0,%edi
  400f1b:	e8 50 fe ff ff       	callq  400d70 <exit@plt>

0000000000400f20 <initialize_target>:
  400f20:	55                   	push   %rbp
  400f21:	53                   	push   %rbx
  400f22:	48 81 ec 08 21 00 00 	sub    $0x2108,%rsp
  400f29:	89 f5                	mov    %esi,%ebp
  400f2b:	89 3d a7 35 20 00    	mov    %edi,0x2035a7(%rip)        # 6044d8 <check_level>
  400f31:	8b 3d 11 32 20 00    	mov    0x203211(%rip),%edi        # 604148 <target_id>
  400f37:	e8 e7 1b 00 00       	callq  402b23 <gencookie>
  400f3c:	89 05 a2 35 20 00    	mov    %eax,0x2035a2(%rip)        # 6044e4 <cookie>
  400f42:	89 c7                	mov    %eax,%edi
  400f44:	e8 da 1b 00 00       	callq  402b23 <gencookie>
  400f49:	89 05 91 35 20 00    	mov    %eax,0x203591(%rip)        # 6044e0 <authkey>
  400f4f:	8b 05 f3 31 20 00    	mov    0x2031f3(%rip),%eax        # 604148 <target_id>
  400f55:	8d 78 01             	lea    0x1(%rax),%edi
  400f58:	e8 53 fc ff ff       	callq  400bb0 <srandom@plt>
  400f5d:	e8 6e fd ff ff       	callq  400cd0 <random@plt>
  400f62:	89 c7                	mov    %eax,%edi
  400f64:	e8 75 02 00 00       	callq  4011de <scramble>
  400f69:	89 c3                	mov    %eax,%ebx
  400f6b:	85 ed                	test   %ebp,%ebp
  400f6d:	74 18                	je     400f87 <initialize_target+0x67>
  400f6f:	bf 00 00 00 00       	mov    $0x0,%edi
  400f74:	e8 47 fd ff ff       	callq  400cc0 <time@plt>
  400f79:	89 c7                	mov    %eax,%edi
  400f7b:	e8 30 fc ff ff       	callq  400bb0 <srandom@plt>
  400f80:	e8 4b fd ff ff       	callq  400cd0 <random@plt>
  400f85:	eb 05                	jmp    400f8c <initialize_target+0x6c>
  400f87:	b8 00 00 00 00       	mov    $0x0,%eax
  400f8c:	01 c3                	add    %eax,%ebx
  400f8e:	0f b7 db             	movzwl %bx,%ebx
  400f91:	8d 04 dd 00 01 00 00 	lea    0x100(,%rbx,8),%eax
  400f98:	89 c0                	mov    %eax,%eax
  400f9a:	48 89 05 df 34 20 00 	mov    %rax,0x2034df(%rip)        # 604480 <buf_offset>
  400fa1:	c6 05 60 41 20 00 63 	movb   $0x63,0x204160(%rip)        # 605108 <target_prefix>
  400fa8:	83 3d d9 34 20 00 00 	cmpl   $0x0,0x2034d9(%rip)        # 604488 <notify>
  400faf:	74 60                	je     401011 <initialize_target+0xf1>
  400fb1:	83 3d 30 35 20 00 00 	cmpl   $0x0,0x203530(%rip)        # 6044e8 <is_checker>
  400fb8:	75 57                	jne    401011 <initialize_target+0xf1>
  400fba:	be 00 01 00 00       	mov    $0x100,%esi
  400fbf:	48 89 e7             	mov    %rsp,%rdi
  400fc2:	e8 89 fd ff ff       	callq  400d50 <gethostname@plt>
  400fc7:	85 c0                	test   %eax,%eax
  400fc9:	74 14                	je     400fdf <initialize_target+0xbf>
  400fcb:	bf c0 2c 40 00       	mov    $0x402cc0,%edi
  400fd0:	e8 0b fc ff ff       	callq  400be0 <puts@plt>
  400fd5:	bf 08 00 00 00       	mov    $0x8,%edi
  400fda:	e8 91 fd ff ff       	callq  400d70 <exit@plt>
  400fdf:	48 8d bc 24 00 01 00 	lea    0x100(%rsp),%rdi
  400fe6:	00 
  400fe7:	e8 ce 18 00 00       	callq  4028ba <init_driver>
  400fec:	85 c0                	test   %eax,%eax
  400fee:	79 21                	jns    401011 <initialize_target+0xf1>
  400ff0:	48 8d b4 24 00 01 00 	lea    0x100(%rsp),%rsi
  400ff7:	00 
  400ff8:	bf f8 2c 40 00       	mov    $0x402cf8,%edi
  400ffd:	b8 00 00 00 00       	mov    $0x0,%eax
  401002:	e8 09 fc ff ff       	callq  400c10 <printf@plt>
  401007:	bf 08 00 00 00       	mov    $0x8,%edi
  40100c:	e8 5f fd ff ff       	callq  400d70 <exit@plt>
  401011:	48 81 c4 08 21 00 00 	add    $0x2108,%rsp
  401018:	5b                   	pop    %rbx
  401019:	5d                   	pop    %rbp
  40101a:	c3                   	retq   

000000000040101b <main>:
  40101b:	41 56                	push   %r14
  40101d:	41 55                	push   %r13
  40101f:	41 54                	push   %r12
  401021:	55                   	push   %rbp
  401022:	53                   	push   %rbx
  401023:	41 89 fc             	mov    %edi,%r12d
  401026:	48 89 f3             	mov    %rsi,%rbx
  401029:	be e1 1c 40 00       	mov    $0x401ce1,%esi
  40102e:	bf 0b 00 00 00       	mov    $0xb,%edi
  401033:	e8 38 fc ff ff       	callq  400c70 <signal@plt>
  401038:	be 93 1c 40 00       	mov    $0x401c93,%esi
  40103d:	bf 07 00 00 00       	mov    $0x7,%edi
  401042:	e8 29 fc ff ff       	callq  400c70 <signal@plt>
  401047:	be 2f 1d 40 00       	mov    $0x401d2f,%esi
  40104c:	bf 04 00 00 00       	mov    $0x4,%edi
  401051:	e8 1a fc ff ff       	callq  400c70 <signal@plt>
  401056:	83 3d 8b 34 20 00 00 	cmpl   $0x0,0x20348b(%rip)        # 6044e8 <is_checker>
  40105d:	74 20                	je     40107f <main+0x64>
  40105f:	be 7d 1d 40 00       	mov    $0x401d7d,%esi
  401064:	bf 0e 00 00 00       	mov    $0xe,%edi
  401069:	e8 02 fc ff ff       	callq  400c70 <signal@plt>
  40106e:	bf 05 00 00 00       	mov    $0x5,%edi
  401073:	e8 b8 fb ff ff       	callq  400c30 <alarm@plt>
  401078:	bd c2 2d 40 00       	mov    $0x402dc2,%ebp
  40107d:	eb 05                	jmp    401084 <main+0x69>
  40107f:	bd bd 2d 40 00       	mov    $0x402dbd,%ebp
  401084:	48 8b 05 15 34 20 00 	mov    0x203415(%rip),%rax        # 6044a0 <stdin@@GLIBC_2.2.5>
  40108b:	48 89 05 3e 34 20 00 	mov    %rax,0x20343e(%rip)        # 6044d0 <infile>
  401092:	41 bd 00 00 00 00    	mov    $0x0,%r13d
  401098:	41 be 00 00 00 00    	mov    $0x0,%r14d
  40109e:	e9 b9 00 00 00       	jmpq   40115c <main+0x141>
  4010a3:	83 e8 61             	sub    $0x61,%eax
  4010a6:	3c 10                	cmp    $0x10,%al
  4010a8:	0f 87 93 00 00 00    	ja     401141 <main+0x126>
  4010ae:	0f b6 c0             	movzbl %al,%eax
  4010b1:	ff 24 c5 08 2e 40 00 	jmpq   *0x402e08(,%rax,8)
  4010b8:	48 8b 3b             	mov    (%rbx),%rdi
  4010bb:	e8 e0 fd ff ff       	callq  400ea0 <usage>
  4010c0:	be 8d 30 40 00       	mov    $0x40308d,%esi
  4010c5:	48 8b 3d dc 33 20 00 	mov    0x2033dc(%rip),%rdi        # 6044a8 <optarg@@GLIBC_2.2.5>
  4010cc:	e8 4f fc ff ff       	callq  400d20 <fopen@plt>
  4010d1:	48 89 05 f8 33 20 00 	mov    %rax,0x2033f8(%rip)        # 6044d0 <infile>
  4010d8:	48 85 c0             	test   %rax,%rax
  4010db:	75 7f                	jne    40115c <main+0x141>
  4010dd:	48 8b 15 c4 33 20 00 	mov    0x2033c4(%rip),%rdx        # 6044a8 <optarg@@GLIBC_2.2.5>
  4010e4:	be ca 2d 40 00       	mov    $0x402dca,%esi
  4010e9:	48 8b 3d c0 33 20 00 	mov    0x2033c0(%rip),%rdi        # 6044b0 <stderr@@GLIBC_2.2.5>
  4010f0:	e8 9b fb ff ff       	callq  400c90 <fprintf@plt>
  4010f5:	b8 01 00 00 00       	mov    $0x1,%eax
  4010fa:	e9 d6 00 00 00       	jmpq   4011d5 <main+0x1ba>
  4010ff:	ba 10 00 00 00       	mov    $0x10,%edx
  401104:	be 00 00 00 00       	mov    $0x0,%esi
  401109:	48 8b 3d 98 33 20 00 	mov    0x203398(%rip),%rdi        # 6044a8 <optarg@@GLIBC_2.2.5>
  401110:	e8 2b fc ff ff       	callq  400d40 <strtoul@plt>
  401115:	41 89 c6             	mov    %eax,%r14d
  401118:	eb 42                	jmp    40115c <main+0x141>
  40111a:	ba 0a 00 00 00       	mov    $0xa,%edx
  40111f:	be 00 00 00 00       	mov    $0x0,%esi
  401124:	48 8b 3d 7d 33 20 00 	mov    0x20337d(%rip),%rdi        # 6044a8 <optarg@@GLIBC_2.2.5>
  40112b:	e8 70 fb ff ff       	callq  400ca0 <strtol@plt>
  401130:	41 89 c5             	mov    %eax,%r13d
  401133:	eb 27                	jmp    40115c <main+0x141>
  401135:	c7 05 49 33 20 00 00 	movl   $0x0,0x203349(%rip)        # 604488 <notify>
  40113c:	00 00 00 
  40113f:	eb 1b                	jmp    40115c <main+0x141>
  401141:	40 0f be f6          	movsbl %sil,%esi
  401145:	bf e7 2d 40 00       	mov    $0x402de7,%edi
  40114a:	b8 00 00 00 00       	mov    $0x0,%eax
  40114f:	e8 bc fa ff ff       	callq  400c10 <printf@plt>
  401154:	48 8b 3b             	mov    (%rbx),%rdi
  401157:	e8 44 fd ff ff       	callq  400ea0 <usage>
  40115c:	48 89 ea             	mov    %rbp,%rdx
  40115f:	48 89 de             	mov    %rbx,%rsi
  401162:	44 89 e7             	mov    %r12d,%edi
  401165:	e8 c6 fb ff ff       	callq  400d30 <getopt@plt>
  40116a:	89 c6                	mov    %eax,%esi
  40116c:	3c ff                	cmp    $0xff,%al
  40116e:	0f 85 2f ff ff ff    	jne    4010a3 <main+0x88>
  401174:	be 00 00 00 00       	mov    $0x0,%esi
  401179:	44 89 ef             	mov    %r13d,%edi
  40117c:	e8 9f fd ff ff       	callq  400f20 <initialize_target>
  401181:	83 3d 60 33 20 00 00 	cmpl   $0x0,0x203360(%rip)        # 6044e8 <is_checker>
  401188:	74 25                	je     4011af <main+0x194>
  40118a:	44 3b 35 4f 33 20 00 	cmp    0x20334f(%rip),%r14d        # 6044e0 <authkey>
  401191:	74 1c                	je     4011af <main+0x194>
  401193:	44 89 f6             	mov    %r14d,%esi
  401196:	bf 20 2d 40 00       	mov    $0x402d20,%edi
  40119b:	b8 00 00 00 00       	mov    $0x0,%eax
  4011a0:	e8 6b fa ff ff       	callq  400c10 <printf@plt>
  4011a5:	b8 00 00 00 00       	mov    $0x0,%eax
  4011aa:	e8 ec 07 00 00       	callq  40199b <check_fail>
  4011af:	8b 35 2f 33 20 00    	mov    0x20332f(%rip),%esi        # 6044e4 <cookie>
  4011b5:	bf fa 2d 40 00       	mov    $0x402dfa,%edi
  4011ba:	b8 00 00 00 00       	mov    $0x0,%eax
  4011bf:	e8 4c fa ff ff       	callq  400c10 <printf@plt>
  4011c4:	48 8b 3d b5 32 20 00 	mov    0x2032b5(%rip),%rdi        # 604480 <buf_offset>
  4011cb:	e8 7c 0c 00 00       	callq  401e4c <stable_launch>
  4011d0:	b8 00 00 00 00       	mov    $0x0,%eax
  4011d5:	5b                   	pop    %rbx
  4011d6:	5d                   	pop    %rbp
  4011d7:	41 5c                	pop    %r12
  4011d9:	41 5d                	pop    %r13
  4011db:	41 5e                	pop    %r14
  4011dd:	c3                   	retq   

00000000004011de <scramble>:
  4011de:	b8 00 00 00 00       	mov    $0x0,%eax
  4011e3:	eb 11                	jmp    4011f6 <scramble+0x18>
  4011e5:	69 c8 dc 58 00 00    	imul   $0x58dc,%eax,%ecx
  4011eb:	01 f9                	add    %edi,%ecx
  4011ed:	89 c2                	mov    %eax,%edx
  4011ef:	89 4c 94 d0          	mov    %ecx,-0x30(%rsp,%rdx,4)
  4011f3:	83 c0 01             	add    $0x1,%eax
  4011f6:	83 f8 09             	cmp    $0x9,%eax
  4011f9:	76 ea                	jbe    4011e5 <scramble+0x7>
  4011fb:	8b 44 24 f0          	mov    -0x10(%rsp),%eax
  4011ff:	69 c0 39 3a 00 00    	imul   $0x3a39,%eax,%eax
  401205:	89 44 24 f0          	mov    %eax,-0x10(%rsp)
  401209:	8b 44 24 e4          	mov    -0x1c(%rsp),%eax
  40120d:	69 c0 95 d1 00 00    	imul   $0xd195,%eax,%eax
  401213:	89 44 24 e4          	mov    %eax,-0x1c(%rsp)
  401217:	8b 44 24 e4          	mov    -0x1c(%rsp),%eax
  40121b:	69 c0 88 99 00 00    	imul   $0x9988,%eax,%eax
  401221:	89 44 24 e4          	mov    %eax,-0x1c(%rsp)
  401225:	8b 44 24 e8          	mov    -0x18(%rsp),%eax
  401229:	69 c0 21 6d 00 00    	imul   $0x6d21,%eax,%eax
  40122f:	89 44 24 e8          	mov    %eax,-0x18(%rsp)
  401233:	8b 44 24 ec          	mov    -0x14(%rsp),%eax
  401237:	69 c0 b1 cf 00 00    	imul   $0xcfb1,%eax,%eax
  40123d:	89 44 24 ec          	mov    %eax,-0x14(%rsp)
  401241:	8b 44 24 ec          	mov    -0x14(%rsp),%eax
  401245:	69 c0 a1 eb 00 00    	imul   $0xeba1,%eax,%eax
  40124b:	89 44 24 ec          	mov    %eax,-0x14(%rsp)
  40124f:	8b 44 24 d0          	mov    -0x30(%rsp),%eax
  401253:	69 c0 08 7c 00 00    	imul   $0x7c08,%eax,%eax
  401259:	89 44 24 d0          	mov    %eax,-0x30(%rsp)
  40125d:	8b 44 24 e8          	mov    -0x18(%rsp),%eax
  401261:	69 c0 97 05 00 00    	imul   $0x597,%eax,%eax
  401267:	89 44 24 e8          	mov    %eax,-0x18(%rsp)
  40126b:	8b 44 24 e4          	mov    -0x1c(%rsp),%eax
  40126f:	69 c0 18 94 00 00    	imul   $0x9418,%eax,%eax
  401275:	89 44 24 e4          	mov    %eax,-0x1c(%rsp)
  401279:	8b 44 24 d8          	mov    -0x28(%rsp),%eax
  40127d:	69 c0 02 7b 00 00    	imul   $0x7b02,%eax,%eax
  401283:	89 44 24 d8          	mov    %eax,-0x28(%rsp)
  401287:	8b 44 24 d8          	mov    -0x28(%rsp),%eax
  40128b:	69 c0 d1 dc 00 00    	imul   $0xdcd1,%eax,%eax
  401291:	89 44 24 d8          	mov    %eax,-0x28(%rsp)
  401295:	8b 44 24 e8          	mov    -0x18(%rsp),%eax
  401299:	69 c0 4e f7 00 00    	imul   $0xf74e,%eax,%eax
  40129f:	89 44 24 e8          	mov    %eax,-0x18(%rsp)
  4012a3:	8b 44 24 e0          	mov    -0x20(%rsp),%eax
  4012a7:	69 c0 e7 65 00 00    	imul   $0x65e7,%eax,%eax
  4012ad:	89 44 24 e0          	mov    %eax,-0x20(%rsp)
  4012b1:	8b 44 24 f4          	mov    -0xc(%rsp),%eax
  4012b5:	69 c0 8f bb 00 00    	imul   $0xbb8f,%eax,%eax
  4012bb:	89 44 24 f4          	mov    %eax,-0xc(%rsp)
  4012bf:	8b 44 24 e0          	mov    -0x20(%rsp),%eax
  4012c3:	69 c0 08 b0 00 00    	imul   $0xb008,%eax,%eax
  4012c9:	89 44 24 e0          	mov    %eax,-0x20(%rsp)
  4012cd:	8b 44 24 f4          	mov    -0xc(%rsp),%eax
  4012d1:	69 c0 30 5d 00 00    	imul   $0x5d30,%eax,%eax
  4012d7:	89 44 24 f4          	mov    %eax,-0xc(%rsp)
  4012db:	8b 44 24 e4          	mov    -0x1c(%rsp),%eax
  4012df:	69 c0 dc 19 00 00    	imul   $0x19dc,%eax,%eax
  4012e5:	89 44 24 e4          	mov    %eax,-0x1c(%rsp)
  4012e9:	8b 44 24 f0          	mov    -0x10(%rsp),%eax
  4012ed:	69 c0 89 97 00 00    	imul   $0x9789,%eax,%eax
  4012f3:	89 44 24 f0          	mov    %eax,-0x10(%rsp)
  4012f7:	8b 44 24 e8          	mov    -0x18(%rsp),%eax
  4012fb:	69 c0 9c a4 00 00    	imul   $0xa49c,%eax,%eax
  401301:	89 44 24 e8          	mov    %eax,-0x18(%rsp)
  401305:	8b 44 24 d4          	mov    -0x2c(%rsp),%eax
  401309:	69 c0 06 6e 00 00    	imul   $0x6e06,%eax,%eax
  40130f:	89 44 24 d4          	mov    %eax,-0x2c(%rsp)
  401313:	8b 44 24 d8          	mov    -0x28(%rsp),%eax
  401317:	69 c0 37 ae 00 00    	imul   $0xae37,%eax,%eax
  40131d:	89 44 24 d8          	mov    %eax,-0x28(%rsp)
  401321:	8b 44 24 ec          	mov    -0x14(%rsp),%eax
  401325:	69 c0 6c 7c 00 00    	imul   $0x7c6c,%eax,%eax
  40132b:	89 44 24 ec          	mov    %eax,-0x14(%rsp)
  40132f:	8b 44 24 e0          	mov    -0x20(%rsp),%eax
  401333:	69 c0 34 92 00 00    	imul   $0x9234,%eax,%eax
  401339:	89 44 24 e0          	mov    %eax,-0x20(%rsp)
  40133d:	8b 44 24 d8          	mov    -0x28(%rsp),%eax
  401341:	69 c0 d5 d9 00 00    	imul   $0xd9d5,%eax,%eax
  401347:	89 44 24 d8          	mov    %eax,-0x28(%rsp)
  40134b:	8b 44 24 dc          	mov    -0x24(%rsp),%eax
  40134f:	69 c0 59 c0 00 00    	imul   $0xc059,%eax,%eax
  401355:	89 44 24 dc          	mov    %eax,-0x24(%rsp)
  401359:	8b 44 24 e0          	mov    -0x20(%rsp),%eax
  40135d:	69 c0 30 fc 00 00    	imul   $0xfc30,%eax,%eax
  401363:	89 44 24 e0          	mov    %eax,-0x20(%rsp)
  401367:	8b 44 24 d0          	mov    -0x30(%rsp),%eax
  40136b:	69 c0 d6 3a 00 00    	imul   $0x3ad6,%eax,%eax
  401371:	89 44 24 d0          	mov    %eax,-0x30(%rsp)
  401375:	8b 44 24 f4          	mov    -0xc(%rsp),%eax
  401379:	69 c0 0c 69 00 00    	imul   $0x690c,%eax,%eax
  40137f:	89 44 24 f4          	mov    %eax,-0xc(%rsp)
  401383:	8b 44 24 e4          	mov    -0x1c(%rsp),%eax
  401387:	69 c0 0a ec 00 00    	imul   $0xec0a,%eax,%eax
  40138d:	89 44 24 e4          	mov    %eax,-0x1c(%rsp)
  401391:	8b 44 24 f0          	mov    -0x10(%rsp),%eax
  401395:	69 c0 10 a5 00 00    	imul   $0xa510,%eax,%eax
  40139b:	89 44 24 f0          	mov    %eax,-0x10(%rsp)
  40139f:	8b 44 24 f0          	mov    -0x10(%rsp),%eax
  4013a3:	69 c0 23 43 00 00    	imul   $0x4323,%eax,%eax
  4013a9:	89 44 24 f0          	mov    %eax,-0x10(%rsp)
  4013ad:	8b 44 24 e4          	mov    -0x1c(%rsp),%eax
  4013b1:	69 c0 53 86 00 00    	imul   $0x8653,%eax,%eax
  4013b7:	89 44 24 e4          	mov    %eax,-0x1c(%rsp)
  4013bb:	8b 44 24 e8          	mov    -0x18(%rsp),%eax
  4013bf:	69 c0 05 31 00 00    	imul   $0x3105,%eax,%eax
  4013c5:	89 44 24 e8          	mov    %eax,-0x18(%rsp)
  4013c9:	8b 44 24 ec          	mov    -0x14(%rsp),%eax
  4013cd:	69 c0 63 10 00 00    	imul   $0x1063,%eax,%eax
  4013d3:	89 44 24 ec          	mov    %eax,-0x14(%rsp)
  4013d7:	8b 44 24 d0          	mov    -0x30(%rsp),%eax
  4013db:	69 c0 86 22 00 00    	imul   $0x2286,%eax,%eax
  4013e1:	89 44 24 d0          	mov    %eax,-0x30(%rsp)
  4013e5:	8b 44 24 f0          	mov    -0x10(%rsp),%eax
  4013e9:	69 c0 ee 49 00 00    	imul   $0x49ee,%eax,%eax
  4013ef:	89 44 24 f0          	mov    %eax,-0x10(%rsp)
  4013f3:	8b 44 24 d4          	mov    -0x2c(%rsp),%eax
  4013f7:	69 c0 12 d8 00 00    	imul   $0xd812,%eax,%eax
  4013fd:	89 44 24 d4          	mov    %eax,-0x2c(%rsp)
  401401:	8b 44 24 f0          	mov    -0x10(%rsp),%eax
  401405:	69 c0 fd fa 00 00    	imul   $0xfafd,%eax,%eax
  40140b:	89 44 24 f0          	mov    %eax,-0x10(%rsp)
  40140f:	8b 44 24 dc          	mov    -0x24(%rsp),%eax
  401413:	69 c0 5f 48 00 00    	imul   $0x485f,%eax,%eax
  401419:	89 44 24 dc          	mov    %eax,-0x24(%rsp)
  40141d:	8b 44 24 e8          	mov    -0x18(%rsp),%eax
  401421:	69 c0 92 90 00 00    	imul   $0x9092,%eax,%eax
  401427:	89 44 24 e8          	mov    %eax,-0x18(%rsp)
  40142b:	8b 44 24 f0          	mov    -0x10(%rsp),%eax
  40142f:	69 c0 aa 29 00 00    	imul   $0x29aa,%eax,%eax
  401435:	89 44 24 f0          	mov    %eax,-0x10(%rsp)
  401439:	8b 44 24 e0          	mov    -0x20(%rsp),%eax
  40143d:	69 c0 e2 a5 00 00    	imul   $0xa5e2,%eax,%eax
  401443:	89 44 24 e0          	mov    %eax,-0x20(%rsp)
  401447:	8b 44 24 d8          	mov    -0x28(%rsp),%eax
  40144b:	69 c0 40 80 00 00    	imul   $0x8040,%eax,%eax
  401451:	89 44 24 d8          	mov    %eax,-0x28(%rsp)
  401455:	8b 44 24 e8          	mov    -0x18(%rsp),%eax
  401459:	69 c0 3d 05 00 00    	imul   $0x53d,%eax,%eax
  40145f:	89 44 24 e8          	mov    %eax,-0x18(%rsp)
  401463:	8b 44 24 d8          	mov    -0x28(%rsp),%eax
  401467:	69 c0 8a 33 00 00    	imul   $0x338a,%eax,%eax
  40146d:	89 44 24 d8          	mov    %eax,-0x28(%rsp)
  401471:	8b 44 24 d4          	mov    -0x2c(%rsp),%eax
  401475:	69 c0 5c 08 00 00    	imul   $0x85c,%eax,%eax
  40147b:	89 44 24 d4          	mov    %eax,-0x2c(%rsp)
  40147f:	8b 44 24 e4          	mov    -0x1c(%rsp),%eax
  401483:	69 c0 8e ac 00 00    	imul   $0xac8e,%eax,%eax
  401489:	89 44 24 e4          	mov    %eax,-0x1c(%rsp)
  40148d:	8b 44 24 f0          	mov    -0x10(%rsp),%eax
  401491:	69 c0 ad d3 00 00    	imul   $0xd3ad,%eax,%eax
  401497:	89 44 24 f0          	mov    %eax,-0x10(%rsp)
  40149b:	8b 44 24 e0          	mov    -0x20(%rsp),%eax
  40149f:	69 c0 8c ac 00 00    	imul   $0xac8c,%eax,%eax
  4014a5:	89 44 24 e0          	mov    %eax,-0x20(%rsp)
  4014a9:	8b 44 24 e8          	mov    -0x18(%rsp),%eax
  4014ad:	69 c0 35 b3 00 00    	imul   $0xb335,%eax,%eax
  4014b3:	89 44 24 e8          	mov    %eax,-0x18(%rsp)
  4014b7:	8b 44 24 f0          	mov    -0x10(%rsp),%eax
  4014bb:	69 c0 7a 62 00 00    	imul   $0x627a,%eax,%eax
  4014c1:	89 44 24 f0          	mov    %eax,-0x10(%rsp)
  4014c5:	8b 44 24 d0          	mov    -0x30(%rsp),%eax
  4014c9:	69 c0 d0 9f 00 00    	imul   $0x9fd0,%eax,%eax
  4014cf:	89 44 24 d0          	mov    %eax,-0x30(%rsp)
  4014d3:	8b 44 24 d8          	mov    -0x28(%rsp),%eax
  4014d7:	69 c0 7f c3 00 00    	imul   $0xc37f,%eax,%eax
  4014dd:	89 44 24 d8          	mov    %eax,-0x28(%rsp)
  4014e1:	8b 44 24 e8          	mov    -0x18(%rsp),%eax
  4014e5:	69 c0 d2 a4 00 00    	imul   $0xa4d2,%eax,%eax
  4014eb:	89 44 24 e8          	mov    %eax,-0x18(%rsp)
  4014ef:	8b 44 24 e0          	mov    -0x20(%rsp),%eax
  4014f3:	69 c0 a1 6f 00 00    	imul   $0x6fa1,%eax,%eax
  4014f9:	89 44 24 e0          	mov    %eax,-0x20(%rsp)
  4014fd:	8b 44 24 dc          	mov    -0x24(%rsp),%eax
  401501:	69 c0 96 14 00 00    	imul   $0x1496,%eax,%eax
  401507:	89 44 24 dc          	mov    %eax,-0x24(%rsp)
  40150b:	8b 44 24 d8          	mov    -0x28(%rsp),%eax
  40150f:	69 c0 26 c2 00 00    	imul   $0xc226,%eax,%eax
  401515:	89 44 24 d8          	mov    %eax,-0x28(%rsp)
  401519:	8b 44 24 e0          	mov    -0x20(%rsp),%eax
  40151d:	69 c0 cc fd 00 00    	imul   $0xfdcc,%eax,%eax
  401523:	89 44 24 e0          	mov    %eax,-0x20(%rsp)
  401527:	8b 44 24 dc          	mov    -0x24(%rsp),%eax
  40152b:	69 c0 66 c9 00 00    	imul   $0xc966,%eax,%eax
  401531:	89 44 24 dc          	mov    %eax,-0x24(%rsp)
  401535:	8b 44 24 e8          	mov    -0x18(%rsp),%eax
  401539:	69 c0 b0 ae 00 00    	imul   $0xaeb0,%eax,%eax
  40153f:	89 44 24 e8          	mov    %eax,-0x18(%rsp)
  401543:	8b 44 24 f0          	mov    -0x10(%rsp),%eax
  401547:	69 c0 57 ad 00 00    	imul   $0xad57,%eax,%eax
  40154d:	89 44 24 f0          	mov    %eax,-0x10(%rsp)
  401551:	8b 44 24 d0          	mov    -0x30(%rsp),%eax
  401555:	69 c0 9e 73 00 00    	imul   $0x739e,%eax,%eax
  40155b:	89 44 24 d0          	mov    %eax,-0x30(%rsp)
  40155f:	8b 44 24 f4          	mov    -0xc(%rsp),%eax
  401563:	69 c0 bc 45 00 00    	imul   $0x45bc,%eax,%eax
  401569:	89 44 24 f4          	mov    %eax,-0xc(%rsp)
  40156d:	8b 44 24 f0          	mov    -0x10(%rsp),%eax
  401571:	69 c0 7a 37 00 00    	imul   $0x377a,%eax,%eax
  401577:	89 44 24 f0          	mov    %eax,-0x10(%rsp)
  40157b:	8b 44 24 e4          	mov    -0x1c(%rsp),%eax
  40157f:	69 c0 5b 2b 00 00    	imul   $0x2b5b,%eax,%eax
  401585:	89 44 24 e4          	mov    %eax,-0x1c(%rsp)
  401589:	8b 44 24 d8          	mov    -0x28(%rsp),%eax
  40158d:	69 c0 5a c1 00 00    	imul   $0xc15a,%eax,%eax
  401593:	89 44 24 d8          	mov    %eax,-0x28(%rsp)
  401597:	8b 44 24 d4          	mov    -0x2c(%rsp),%eax
  40159b:	69 c0 d3 e7 00 00    	imul   $0xe7d3,%eax,%eax
  4015a1:	89 44 24 d4          	mov    %eax,-0x2c(%rsp)
  4015a5:	8b 44 24 e0          	mov    -0x20(%rsp),%eax
  4015a9:	69 c0 62 c8 00 00    	imul   $0xc862,%eax,%eax
  4015af:	89 44 24 e0          	mov    %eax,-0x20(%rsp)
  4015b3:	8b 44 24 ec          	mov    -0x14(%rsp),%eax
  4015b7:	69 c0 f9 fb 00 00    	imul   $0xfbf9,%eax,%eax
  4015bd:	89 44 24 ec          	mov    %eax,-0x14(%rsp)
  4015c1:	8b 44 24 d8          	mov    -0x28(%rsp),%eax
  4015c5:	69 c0 30 b7 00 00    	imul   $0xb730,%eax,%eax
  4015cb:	89 44 24 d8          	mov    %eax,-0x28(%rsp)
  4015cf:	8b 44 24 e0          	mov    -0x20(%rsp),%eax
  4015d3:	69 c0 99 a2 00 00    	imul   $0xa299,%eax,%eax
  4015d9:	89 44 24 e0          	mov    %eax,-0x20(%rsp)
  4015dd:	8b 44 24 e8          	mov    -0x18(%rsp),%eax
  4015e1:	69 c0 e5 04 00 00    	imul   $0x4e5,%eax,%eax
  4015e7:	89 44 24 e8          	mov    %eax,-0x18(%rsp)
  4015eb:	8b 44 24 e4          	mov    -0x1c(%rsp),%eax
  4015ef:	69 c0 3e 86 00 00    	imul   $0x863e,%eax,%eax
  4015f5:	89 44 24 e4          	mov    %eax,-0x1c(%rsp)
  4015f9:	8b 44 24 e4          	mov    -0x1c(%rsp),%eax
  4015fd:	69 c0 26 a7 00 00    	imul   $0xa726,%eax,%eax
  401603:	89 44 24 e4          	mov    %eax,-0x1c(%rsp)
  401607:	8b 44 24 dc          	mov    -0x24(%rsp),%eax
  40160b:	69 c0 bb 05 00 00    	imul   $0x5bb,%eax,%eax
  401611:	89 44 24 dc          	mov    %eax,-0x24(%rsp)
  401615:	8b 44 24 f0          	mov    -0x10(%rsp),%eax
  401619:	69 c0 95 4c 00 00    	imul   $0x4c95,%eax,%eax
  40161f:	89 44 24 f0          	mov    %eax,-0x10(%rsp)
  401623:	8b 44 24 dc          	mov    -0x24(%rsp),%eax
  401627:	69 c0 e3 0c 00 00    	imul   $0xce3,%eax,%eax
  40162d:	89 44 24 dc          	mov    %eax,-0x24(%rsp)
  401631:	8b 44 24 ec          	mov    -0x14(%rsp),%eax
  401635:	69 c0 f8 0c 00 00    	imul   $0xcf8,%eax,%eax
  40163b:	89 44 24 ec          	mov    %eax,-0x14(%rsp)
  40163f:	8b 44 24 f0          	mov    -0x10(%rsp),%eax
  401643:	69 c0 7e 07 00 00    	imul   $0x77e,%eax,%eax
  401649:	89 44 24 f0          	mov    %eax,-0x10(%rsp)
  40164d:	8b 44 24 d0          	mov    -0x30(%rsp),%eax
  401651:	69 c0 e7 44 00 00    	imul   $0x44e7,%eax,%eax
  401657:	89 44 24 d0          	mov    %eax,-0x30(%rsp)
  40165b:	8b 44 24 d8          	mov    -0x28(%rsp),%eax
  40165f:	69 c0 22 2f 00 00    	imul   $0x2f22,%eax,%eax
  401665:	89 44 24 d8          	mov    %eax,-0x28(%rsp)
  401669:	8b 44 24 f4          	mov    -0xc(%rsp),%eax
  40166d:	69 c0 b0 c0 00 00    	imul   $0xc0b0,%eax,%eax
  401673:	89 44 24 f4          	mov    %eax,-0xc(%rsp)
  401677:	8b 44 24 e8          	mov    -0x18(%rsp),%eax
  40167b:	69 c0 6d 67 00 00    	imul   $0x676d,%eax,%eax
  401681:	89 44 24 e8          	mov    %eax,-0x18(%rsp)
  401685:	8b 44 24 d0          	mov    -0x30(%rsp),%eax
  401689:	69 c0 48 c2 00 00    	imul   $0xc248,%eax,%eax
  40168f:	89 44 24 d0          	mov    %eax,-0x30(%rsp)
  401693:	8b 44 24 e8          	mov    -0x18(%rsp),%eax
  401697:	69 c0 47 f6 00 00    	imul   $0xf647,%eax,%eax
  40169d:	89 44 24 e8          	mov    %eax,-0x18(%rsp)
  4016a1:	8b 44 24 ec          	mov    -0x14(%rsp),%eax
  4016a5:	69 c0 00 cf 00 00    	imul   $0xcf00,%eax,%eax
  4016ab:	89 44 24 ec          	mov    %eax,-0x14(%rsp)
  4016af:	8b 44 24 f4          	mov    -0xc(%rsp),%eax
  4016b3:	69 c0 3f 45 00 00    	imul   $0x453f,%eax,%eax
  4016b9:	89 44 24 f4          	mov    %eax,-0xc(%rsp)
  4016bd:	8b 44 24 d4          	mov    -0x2c(%rsp),%eax
  4016c1:	69 c0 a1 fd 00 00    	imul   $0xfda1,%eax,%eax
  4016c7:	89 44 24 d4          	mov    %eax,-0x2c(%rsp)
  4016cb:	8b 44 24 e4          	mov    -0x1c(%rsp),%eax
  4016cf:	69 c0 97 d6 00 00    	imul   $0xd697,%eax,%eax
  4016d5:	89 44 24 e4          	mov    %eax,-0x1c(%rsp)
  4016d9:	8b 44 24 f0          	mov    -0x10(%rsp),%eax
  4016dd:	69 c0 22 1b 00 00    	imul   $0x1b22,%eax,%eax
  4016e3:	89 44 24 f0          	mov    %eax,-0x10(%rsp)
  4016e7:	8b 44 24 d0          	mov    -0x30(%rsp),%eax
  4016eb:	69 c0 9e fa 00 00    	imul   $0xfa9e,%eax,%eax
  4016f1:	89 44 24 d0          	mov    %eax,-0x30(%rsp)
  4016f5:	8b 44 24 e0          	mov    -0x20(%rsp),%eax
  4016f9:	69 c0 64 8f 00 00    	imul   $0x8f64,%eax,%eax
  4016ff:	89 44 24 e0          	mov    %eax,-0x20(%rsp)
  401703:	8b 44 24 ec          	mov    -0x14(%rsp),%eax
  401707:	69 c0 eb 27 00 00    	imul   $0x27eb,%eax,%eax
  40170d:	89 44 24 ec          	mov    %eax,-0x14(%rsp)
  401711:	8b 44 24 d8          	mov    -0x28(%rsp),%eax
  401715:	69 c0 21 5a 00 00    	imul   $0x5a21,%eax,%eax
  40171b:	89 44 24 d8          	mov    %eax,-0x28(%rsp)
  40171f:	8b 44 24 d4          	mov    -0x2c(%rsp),%eax
  401723:	69 c0 cf e0 00 00    	imul   $0xe0cf,%eax,%eax
  401729:	89 44 24 d4          	mov    %eax,-0x2c(%rsp)
  40172d:	8b 44 24 d4          	mov    -0x2c(%rsp),%eax
  401731:	69 c0 44 62 00 00    	imul   $0x6244,%eax,%eax
  401737:	89 44 24 d4          	mov    %eax,-0x2c(%rsp)
  40173b:	8b 44 24 e8          	mov    -0x18(%rsp),%eax
  40173f:	69 c0 4b a5 00 00    	imul   $0xa54b,%eax,%eax
  401745:	89 44 24 e8          	mov    %eax,-0x18(%rsp)
  401749:	8b 44 24 d0          	mov    -0x30(%rsp),%eax
  40174d:	69 c0 e7 26 00 00    	imul   $0x26e7,%eax,%eax
  401753:	89 44 24 d0          	mov    %eax,-0x30(%rsp)
  401757:	8b 44 24 f4          	mov    -0xc(%rsp),%eax
  40175b:	69 c0 06 ac 00 00    	imul   $0xac06,%eax,%eax
  401761:	89 44 24 f4          	mov    %eax,-0xc(%rsp)
  401765:	8b 44 24 f0          	mov    -0x10(%rsp),%eax
  401769:	69 c0 1e 70 00 00    	imul   $0x701e,%eax,%eax
  40176f:	89 44 24 f0          	mov    %eax,-0x10(%rsp)
  401773:	ba 00 00 00 00       	mov    $0x0,%edx
  401778:	b8 00 00 00 00       	mov    $0x0,%eax
  40177d:	eb 0b                	jmp    40178a <scramble+0x5ac>
  40177f:	89 d1                	mov    %edx,%ecx
  401781:	8b 4c 8c d0          	mov    -0x30(%rsp,%rcx,4),%ecx
  401785:	01 c8                	add    %ecx,%eax
  401787:	83 c2 01             	add    $0x1,%edx
  40178a:	83 fa 09             	cmp    $0x9,%edx
  40178d:	76 f0                	jbe    40177f <scramble+0x5a1>
  40178f:	f3 c3                	repz retq 

0000000000401791 <getbuf>:
  401791:	48 83 ec 28          	sub    $0x28,%rsp
  401795:	48 89 e7             	mov    %rsp,%rdi
  401798:	e8 2d 02 00 00       	callq  4019ca <Gets>
  40179d:	b8 01 00 00 00       	mov    $0x1,%eax
  4017a2:	48 83 c4 28          	add    $0x28,%rsp
  4017a6:	c3                   	retq   

00000000004017a7 <touch1>:
  4017a7:	48 83 ec 08          	sub    $0x8,%rsp
  4017ab:	c7 05 27 2d 20 00 01 	movl   $0x1,0x202d27(%rip)        # 6044dc <vlevel>
  4017b2:	00 00 00 
  4017b5:	bf e5 2e 40 00       	mov    $0x402ee5,%edi
  4017ba:	e8 21 f4 ff ff       	callq  400be0 <puts@plt>
  4017bf:	bf 01 00 00 00       	mov    $0x1,%edi
  4017c4:	e8 f0 03 00 00       	callq  401bb9 <validate>
  4017c9:	bf 00 00 00 00       	mov    $0x0,%edi
  4017ce:	e8 9d f5 ff ff       	callq  400d70 <exit@plt>

00000000004017d3 <touch2>:
  4017d3:	48 83 ec 08          	sub    $0x8,%rsp
  4017d7:	89 fe                	mov    %edi,%esi
  4017d9:	c7 05 f9 2c 20 00 02 	movl   $0x2,0x202cf9(%rip)        # 6044dc <vlevel>
  4017e0:	00 00 00 
  4017e3:	3b 3d fb 2c 20 00    	cmp    0x202cfb(%rip),%edi        # 6044e4 <cookie>
  4017e9:	75 1b                	jne    401806 <touch2+0x33>
  4017eb:	bf 08 2f 40 00       	mov    $0x402f08,%edi
  4017f0:	b8 00 00 00 00       	mov    $0x0,%eax
  4017f5:	e8 16 f4 ff ff       	callq  400c10 <printf@plt>
  4017fa:	bf 02 00 00 00       	mov    $0x2,%edi
  4017ff:	e8 b5 03 00 00       	callq  401bb9 <validate>
  401804:	eb 19                	jmp    40181f <touch2+0x4c>
  401806:	bf 30 2f 40 00       	mov    $0x402f30,%edi
  40180b:	b8 00 00 00 00       	mov    $0x0,%eax
  401810:	e8 fb f3 ff ff       	callq  400c10 <printf@plt>
  401815:	bf 02 00 00 00       	mov    $0x2,%edi
  40181a:	e8 4c 04 00 00       	callq  401c6b <fail>
  40181f:	bf 00 00 00 00       	mov    $0x0,%edi
  401824:	e8 47 f5 ff ff       	callq  400d70 <exit@plt>

0000000000401829 <hexmatch>:
  401829:	41 54                	push   %r12
  40182b:	55                   	push   %rbp
  40182c:	53                   	push   %rbx
  40182d:	48 83 ec 70          	sub    $0x70,%rsp
  401831:	41 89 fc             	mov    %edi,%r12d
  401834:	48 89 f5             	mov    %rsi,%rbp
  401837:	e8 94 f4 ff ff       	callq  400cd0 <random@plt>
  40183c:	48 89 c1             	mov    %rax,%rcx
  40183f:	48 ba 0b d7 a3 70 3d 	movabs $0xa3d70a3d70a3d70b,%rdx
  401846:	0a d7 a3 
  401849:	48 f7 ea             	imul   %rdx
  40184c:	48 8d 04 0a          	lea    (%rdx,%rcx,1),%rax
  401850:	48 c1 f8 06          	sar    $0x6,%rax
  401854:	48 89 ce             	mov    %rcx,%rsi
  401857:	48 c1 fe 3f          	sar    $0x3f,%rsi
  40185b:	48 29 f0             	sub    %rsi,%rax
  40185e:	48 8d 04 80          	lea    (%rax,%rax,4),%rax
  401862:	48 8d 04 80          	lea    (%rax,%rax,4),%rax
  401866:	48 c1 e0 02          	shl    $0x2,%rax
  40186a:	48 29 c1             	sub    %rax,%rcx
  40186d:	48 8d 1c 0c          	lea    (%rsp,%rcx,1),%rbx
  401871:	44 89 e2             	mov    %r12d,%edx
  401874:	be 02 2f 40 00       	mov    $0x402f02,%esi
  401879:	48 89 df             	mov    %rbx,%rdi
  40187c:	b8 00 00 00 00       	mov    $0x0,%eax
  401881:	e8 da f4 ff ff       	callq  400d60 <sprintf@plt>
  401886:	ba 09 00 00 00       	mov    $0x9,%edx
  40188b:	48 89 de             	mov    %rbx,%rsi
  40188e:	48 89 ef             	mov    %rbp,%rdi
  401891:	e8 2a f3 ff ff       	callq  400bc0 <strncmp@plt>
  401896:	85 c0                	test   %eax,%eax
  401898:	0f 94 c0             	sete   %al
  40189b:	0f b6 c0             	movzbl %al,%eax
  40189e:	48 83 c4 70          	add    $0x70,%rsp
  4018a2:	5b                   	pop    %rbx
  4018a3:	5d                   	pop    %rbp
  4018a4:	41 5c                	pop    %r12
  4018a6:	c3                   	retq   

00000000004018a7 <touch3>:
  4018a7:	53                   	push   %rbx
  4018a8:	48 89 fb             	mov    %rdi,%rbx
  4018ab:	c7 05 27 2c 20 00 03 	movl   $0x3,0x202c27(%rip)        # 6044dc <vlevel>
  4018b2:	00 00 00 
  4018b5:	48 89 fe             	mov    %rdi,%rsi
  4018b8:	8b 3d 26 2c 20 00    	mov    0x202c26(%rip),%edi        # 6044e4 <cookie>
  4018be:	e8 66 ff ff ff       	callq  401829 <hexmatch>
  4018c3:	85 c0                	test   %eax,%eax
  4018c5:	74 1e                	je     4018e5 <touch3+0x3e>
  4018c7:	48 89 de             	mov    %rbx,%rsi
  4018ca:	bf 58 2f 40 00       	mov    $0x402f58,%edi
  4018cf:	b8 00 00 00 00       	mov    $0x0,%eax
  4018d4:	e8 37 f3 ff ff       	callq  400c10 <printf@plt>
  4018d9:	bf 03 00 00 00       	mov    $0x3,%edi
  4018de:	e8 d6 02 00 00       	callq  401bb9 <validate>
  4018e3:	eb 1c                	jmp    401901 <touch3+0x5a>
  4018e5:	48 89 de             	mov    %rbx,%rsi
  4018e8:	bf 80 2f 40 00       	mov    $0x402f80,%edi
  4018ed:	b8 00 00 00 00       	mov    $0x0,%eax
  4018f2:	e8 19 f3 ff ff       	callq  400c10 <printf@plt>
  4018f7:	bf 03 00 00 00       	mov    $0x3,%edi
  4018fc:	e8 6a 03 00 00       	callq  401c6b <fail>
  401901:	bf 00 00 00 00       	mov    $0x0,%edi
  401906:	e8 65 f4 ff ff       	callq  400d70 <exit@plt>

000000000040190b <test>:
  40190b:	48 83 ec 08          	sub    $0x8,%rsp
  40190f:	b8 00 00 00 00       	mov    $0x0,%eax
  401914:	e8 78 fe ff ff       	callq  401791 <getbuf>
  401919:	89 c6                	mov    %eax,%esi
  40191b:	bf a8 2f 40 00       	mov    $0x402fa8,%edi
  401920:	b8 00 00 00 00       	mov    $0x0,%eax
  401925:	e8 e6 f2 ff ff       	callq  400c10 <printf@plt>
  40192a:	48 83 c4 08          	add    $0x8,%rsp
  40192e:	c3                   	retq   
  40192f:	90                   	nop

0000000000401930 <save_char>:
  401930:	8b 05 ce 37 20 00    	mov    0x2037ce(%rip),%eax        # 605104 <gets_cnt>
  401936:	3d ff 03 00 00       	cmp    $0x3ff,%eax
  40193b:	7f 49                	jg     401986 <save_char+0x56>
  40193d:	8d 14 40             	lea    (%rax,%rax,2),%edx
  401940:	89 f9                	mov    %edi,%ecx
  401942:	c0 e9 04             	shr    $0x4,%cl
  401945:	83 e1 0f             	and    $0xf,%ecx
  401948:	0f b6 b1 d0 32 40 00 	movzbl 0x4032d0(%rcx),%esi
  40194f:	48 63 ca             	movslq %edx,%rcx
  401952:	40 88 b1 00 45 60 00 	mov    %sil,0x604500(%rcx)
  401959:	8d 4a 01             	lea    0x1(%rdx),%ecx
  40195c:	83 e7 0f             	and    $0xf,%edi
  40195f:	0f b6 b7 d0 32 40 00 	movzbl 0x4032d0(%rdi),%esi
  401966:	48 63 c9             	movslq %ecx,%rcx
  401969:	40 88 b1 00 45 60 00 	mov    %sil,0x604500(%rcx)
  401970:	83 c2 02             	add    $0x2,%edx
  401973:	48 63 d2             	movslq %edx,%rdx
  401976:	c6 82 00 45 60 00 20 	movb   $0x20,0x604500(%rdx)
  40197d:	83 c0 01             	add    $0x1,%eax
  401980:	89 05 7e 37 20 00    	mov    %eax,0x20377e(%rip)        # 605104 <gets_cnt>
  401986:	f3 c3                	repz retq 

0000000000401988 <save_term>:
  401988:	8b 05 76 37 20 00    	mov    0x203776(%rip),%eax        # 605104 <gets_cnt>
  40198e:	8d 04 40             	lea    (%rax,%rax,2),%eax
  401991:	48 98                	cltq   
  401993:	c6 80 00 45 60 00 00 	movb   $0x0,0x604500(%rax)
  40199a:	c3                   	retq   

000000000040199b <check_fail>:
  40199b:	48 83 ec 08          	sub    $0x8,%rsp
  40199f:	0f be 35 62 37 20 00 	movsbl 0x203762(%rip),%esi        # 605108 <target_prefix>
  4019a6:	b9 00 45 60 00       	mov    $0x604500,%ecx
  4019ab:	8b 15 27 2b 20 00    	mov    0x202b27(%rip),%edx        # 6044d8 <check_level>
  4019b1:	bf cb 2f 40 00       	mov    $0x402fcb,%edi
  4019b6:	b8 00 00 00 00       	mov    $0x0,%eax
  4019bb:	e8 50 f2 ff ff       	callq  400c10 <printf@plt>
  4019c0:	bf 01 00 00 00       	mov    $0x1,%edi
  4019c5:	e8 a6 f3 ff ff       	callq  400d70 <exit@plt>

00000000004019ca <Gets>:
  4019ca:	41 54                	push   %r12
  4019cc:	55                   	push   %rbp
  4019cd:	53                   	push   %rbx
  4019ce:	49 89 fc             	mov    %rdi,%r12
  4019d1:	c7 05 29 37 20 00 00 	movl   $0x0,0x203729(%rip)        # 605104 <gets_cnt>
  4019d8:	00 00 00 
  4019db:	48 89 fb             	mov    %rdi,%rbx
  4019de:	eb 11                	jmp    4019f1 <Gets+0x27>
  4019e0:	48 8d 6b 01          	lea    0x1(%rbx),%rbp
  4019e4:	88 03                	mov    %al,(%rbx)
  4019e6:	0f b6 f8             	movzbl %al,%edi
  4019e9:	e8 42 ff ff ff       	callq  401930 <save_char>
  4019ee:	48 89 eb             	mov    %rbp,%rbx
  4019f1:	48 8b 3d d8 2a 20 00 	mov    0x202ad8(%rip),%rdi        # 6044d0 <infile>
  4019f8:	e8 e3 f2 ff ff       	callq  400ce0 <_IO_getc@plt>
  4019fd:	83 f8 ff             	cmp    $0xffffffff,%eax
  401a00:	74 05                	je     401a07 <Gets+0x3d>
  401a02:	83 f8 0a             	cmp    $0xa,%eax
  401a05:	75 d9                	jne    4019e0 <Gets+0x16>
  401a07:	c6 03 00             	movb   $0x0,(%rbx)
  401a0a:	b8 00 00 00 00       	mov    $0x0,%eax
  401a0f:	e8 74 ff ff ff       	callq  401988 <save_term>
  401a14:	4c 89 e0             	mov    %r12,%rax
  401a17:	5b                   	pop    %rbx
  401a18:	5d                   	pop    %rbp
  401a19:	41 5c                	pop    %r12
  401a1b:	c3                   	retq   

0000000000401a1c <notify_server>:
  401a1c:	83 3d c5 2a 20 00 00 	cmpl   $0x0,0x202ac5(%rip)        # 6044e8 <is_checker>
  401a23:	0f 85 8e 01 00 00    	jne    401bb7 <notify_server+0x19b>
  401a29:	53                   	push   %rbx
  401a2a:	48 81 ec 10 40 00 00 	sub    $0x4010,%rsp
  401a31:	89 fb                	mov    %edi,%ebx
  401a33:	8b 05 cb 36 20 00    	mov    0x2036cb(%rip),%eax        # 605104 <gets_cnt>
  401a39:	83 c0 64             	add    $0x64,%eax
  401a3c:	3d 00 20 00 00       	cmp    $0x2000,%eax
  401a41:	7e 19                	jle    401a5c <notify_server+0x40>
  401a43:	bf 00 31 40 00       	mov    $0x403100,%edi
  401a48:	b8 00 00 00 00       	mov    $0x0,%eax
  401a4d:	e8 be f1 ff ff       	callq  400c10 <printf@plt>
  401a52:	bf 01 00 00 00       	mov    $0x1,%edi
  401a57:	e8 14 f3 ff ff       	callq  400d70 <exit@plt>
  401a5c:	44 0f be 0d a4 36 20 	movsbl 0x2036a4(%rip),%r9d        # 605108 <target_prefix>
  401a63:	00 
  401a64:	83 3d 1d 2a 20 00 00 	cmpl   $0x0,0x202a1d(%rip)        # 604488 <notify>
  401a6b:	74 09                	je     401a76 <notify_server+0x5a>
  401a6d:	44 8b 05 6c 2a 20 00 	mov    0x202a6c(%rip),%r8d        # 6044e0 <authkey>
  401a74:	eb 06                	jmp    401a7c <notify_server+0x60>
  401a76:	41 b8 ff ff ff ff    	mov    $0xffffffff,%r8d
  401a7c:	85 db                	test   %ebx,%ebx
  401a7e:	74 07                	je     401a87 <notify_server+0x6b>
  401a80:	b9 e1 2f 40 00       	mov    $0x402fe1,%ecx
  401a85:	eb 05                	jmp    401a8c <notify_server+0x70>
  401a87:	b9 e6 2f 40 00       	mov    $0x402fe6,%ecx
  401a8c:	48 c7 44 24 08 00 45 	movq   $0x604500,0x8(%rsp)
  401a93:	60 00 
  401a95:	89 34 24             	mov    %esi,(%rsp)
  401a98:	8b 15 aa 26 20 00    	mov    0x2026aa(%rip),%edx        # 604148 <target_id>
  401a9e:	be eb 2f 40 00       	mov    $0x402feb,%esi
  401aa3:	48 8d bc 24 10 20 00 	lea    0x2010(%rsp),%rdi
  401aaa:	00 
  401aab:	b8 00 00 00 00       	mov    $0x0,%eax
  401ab0:	e8 ab f2 ff ff       	callq  400d60 <sprintf@plt>
  401ab5:	83 3d cc 29 20 00 00 	cmpl   $0x0,0x2029cc(%rip)        # 604488 <notify>
  401abc:	74 78                	je     401b36 <notify_server+0x11a>
  401abe:	85 db                	test   %ebx,%ebx
  401ac0:	74 68                	je     401b2a <notify_server+0x10e>
  401ac2:	4c 8d 4c 24 10       	lea    0x10(%rsp),%r9
  401ac7:	41 b8 00 00 00 00    	mov    $0x0,%r8d
  401acd:	48 8d 8c 24 10 20 00 	lea    0x2010(%rsp),%rcx
  401ad4:	00 
  401ad5:	48 8b 15 74 26 20 00 	mov    0x202674(%rip),%rdx        # 604150 <lab>
  401adc:	48 8b 35 75 26 20 00 	mov    0x202675(%rip),%rsi        # 604158 <course>
  401ae3:	48 8b 3d 56 26 20 00 	mov    0x202656(%rip),%rdi        # 604140 <user_id>
  401aea:	e8 94 0f 00 00       	callq  402a83 <driver_post>
  401aef:	85 c0                	test   %eax,%eax
  401af1:	79 1e                	jns    401b11 <notify_server+0xf5>
  401af3:	48 8d 74 24 10       	lea    0x10(%rsp),%rsi
  401af8:	bf 07 30 40 00       	mov    $0x403007,%edi
  401afd:	b8 00 00 00 00       	mov    $0x0,%eax
  401b02:	e8 09 f1 ff ff       	callq  400c10 <printf@plt>
  401b07:	bf 01 00 00 00       	mov    $0x1,%edi
  401b0c:	e8 5f f2 ff ff       	callq  400d70 <exit@plt>
  401b11:	bf 30 31 40 00       	mov    $0x403130,%edi
  401b16:	e8 c5 f0 ff ff       	callq  400be0 <puts@plt>
  401b1b:	bf 13 30 40 00       	mov    $0x403013,%edi
  401b20:	e8 bb f0 ff ff       	callq  400be0 <puts@plt>
  401b25:	e9 85 00 00 00       	jmpq   401baf <notify_server+0x193>
  401b2a:	bf 1d 30 40 00       	mov    $0x40301d,%edi
  401b2f:	e8 ac f0 ff ff       	callq  400be0 <puts@plt>
  401b34:	eb 79                	jmp    401baf <notify_server+0x193>
  401b36:	85 db                	test   %ebx,%ebx
  401b38:	74 08                	je     401b42 <notify_server+0x126>
  401b3a:	be e1 2f 40 00       	mov    $0x402fe1,%esi
  401b3f:	90                   	nop
  401b40:	eb 05                	jmp    401b47 <notify_server+0x12b>
  401b42:	be e6 2f 40 00       	mov    $0x402fe6,%esi
  401b47:	bf 68 31 40 00       	mov    $0x403168,%edi
  401b4c:	b8 00 00 00 00       	mov    $0x0,%eax
  401b51:	e8 ba f0 ff ff       	callq  400c10 <printf@plt>
  401b56:	48 8b 35 e3 25 20 00 	mov    0x2025e3(%rip),%rsi        # 604140 <user_id>
  401b5d:	bf 24 30 40 00       	mov    $0x403024,%edi
  401b62:	b8 00 00 00 00       	mov    $0x0,%eax
  401b67:	e8 a4 f0 ff ff       	callq  400c10 <printf@plt>
  401b6c:	48 8b 35 e5 25 20 00 	mov    0x2025e5(%rip),%rsi        # 604158 <course>
  401b73:	bf 31 30 40 00       	mov    $0x403031,%edi
  401b78:	b8 00 00 00 00       	mov    $0x0,%eax
  401b7d:	e8 8e f0 ff ff       	callq  400c10 <printf@plt>
  401b82:	48 8b 35 c7 25 20 00 	mov    0x2025c7(%rip),%rsi        # 604150 <lab>
  401b89:	bf 3d 30 40 00       	mov    $0x40303d,%edi
  401b8e:	b8 00 00 00 00       	mov    $0x0,%eax
  401b93:	e8 78 f0 ff ff       	callq  400c10 <printf@plt>
  401b98:	48 8d b4 24 10 20 00 	lea    0x2010(%rsp),%rsi
  401b9f:	00 
  401ba0:	bf 46 30 40 00       	mov    $0x403046,%edi
  401ba5:	b8 00 00 00 00       	mov    $0x0,%eax
  401baa:	e8 61 f0 ff ff       	callq  400c10 <printf@plt>
  401baf:	48 81 c4 10 40 00 00 	add    $0x4010,%rsp
  401bb6:	5b                   	pop    %rbx
  401bb7:	f3 c3                	repz retq 

0000000000401bb9 <validate>:
  401bb9:	53                   	push   %rbx
  401bba:	89 fb                	mov    %edi,%ebx
  401bbc:	83 3d 25 29 20 00 00 	cmpl   $0x0,0x202925(%rip)        # 6044e8 <is_checker>
  401bc3:	74 60                	je     401c25 <validate+0x6c>
  401bc5:	39 3d 11 29 20 00    	cmp    %edi,0x202911(%rip)        # 6044dc <vlevel>
  401bcb:	74 14                	je     401be1 <validate+0x28>
  401bcd:	bf 52 30 40 00       	mov    $0x403052,%edi
  401bd2:	e8 09 f0 ff ff       	callq  400be0 <puts@plt>
  401bd7:	b8 00 00 00 00       	mov    $0x0,%eax
  401bdc:	e8 ba fd ff ff       	callq  40199b <check_fail>
  401be1:	8b 35 f1 28 20 00    	mov    0x2028f1(%rip),%esi        # 6044d8 <check_level>
  401be7:	39 fe                	cmp    %edi,%esi
  401be9:	74 1b                	je     401c06 <validate+0x4d>
  401beb:	89 fa                	mov    %edi,%edx
  401bed:	bf 90 31 40 00       	mov    $0x403190,%edi
  401bf2:	b8 00 00 00 00       	mov    $0x0,%eax
  401bf7:	e8 14 f0 ff ff       	callq  400c10 <printf@plt>
  401bfc:	b8 00 00 00 00       	mov    $0x0,%eax
  401c01:	e8 95 fd ff ff       	callq  40199b <check_fail>
  401c06:	0f be 35 fb 34 20 00 	movsbl 0x2034fb(%rip),%esi        # 605108 <target_prefix>
  401c0d:	b9 00 45 60 00       	mov    $0x604500,%ecx
  401c12:	89 fa                	mov    %edi,%edx
  401c14:	bf 70 30 40 00       	mov    $0x403070,%edi
  401c19:	b8 00 00 00 00       	mov    $0x0,%eax
  401c1e:	e8 ed ef ff ff       	callq  400c10 <printf@plt>
  401c23:	eb 44                	jmp    401c69 <validate+0xb0>
  401c25:	39 3d b1 28 20 00    	cmp    %edi,0x2028b1(%rip)        # 6044dc <vlevel>
  401c2b:	74 18                	je     401c45 <validate+0x8c>
  401c2d:	bf 52 30 40 00       	mov    $0x403052,%edi
  401c32:	e8 a9 ef ff ff       	callq  400be0 <puts@plt>
  401c37:	89 de                	mov    %ebx,%esi
  401c39:	bf 00 00 00 00       	mov    $0x0,%edi
  401c3e:	e8 d9 fd ff ff       	callq  401a1c <notify_server>
  401c43:	eb 24                	jmp    401c69 <validate+0xb0>
  401c45:	0f be 15 bc 34 20 00 	movsbl 0x2034bc(%rip),%edx        # 605108 <target_prefix>
  401c4c:	89 fe                	mov    %edi,%esi
  401c4e:	bf b8 31 40 00       	mov    $0x4031b8,%edi
  401c53:	b8 00 00 00 00       	mov    $0x0,%eax
  401c58:	e8 b3 ef ff ff       	callq  400c10 <printf@plt>
  401c5d:	89 de                	mov    %ebx,%esi
  401c5f:	bf 01 00 00 00       	mov    $0x1,%edi
  401c64:	e8 b3 fd ff ff       	callq  401a1c <notify_server>
  401c69:	5b                   	pop    %rbx
  401c6a:	c3                   	retq   

0000000000401c6b <fail>:
  401c6b:	48 83 ec 08          	sub    $0x8,%rsp
  401c6f:	83 3d 72 28 20 00 00 	cmpl   $0x0,0x202872(%rip)        # 6044e8 <is_checker>
  401c76:	74 0a                	je     401c82 <fail+0x17>
  401c78:	b8 00 00 00 00       	mov    $0x0,%eax
  401c7d:	e8 19 fd ff ff       	callq  40199b <check_fail>
  401c82:	89 fe                	mov    %edi,%esi
  401c84:	bf 00 00 00 00       	mov    $0x0,%edi
  401c89:	e8 8e fd ff ff       	callq  401a1c <notify_server>
  401c8e:	48 83 c4 08          	add    $0x8,%rsp
  401c92:	c3                   	retq   

0000000000401c93 <bushandler>:
  401c93:	48 83 ec 08          	sub    $0x8,%rsp
  401c97:	83 3d 4a 28 20 00 00 	cmpl   $0x0,0x20284a(%rip)        # 6044e8 <is_checker>
  401c9e:	74 14                	je     401cb4 <bushandler+0x21>
  401ca0:	bf 85 30 40 00       	mov    $0x403085,%edi
  401ca5:	e8 36 ef ff ff       	callq  400be0 <puts@plt>
  401caa:	b8 00 00 00 00       	mov    $0x0,%eax
  401caf:	e8 e7 fc ff ff       	callq  40199b <check_fail>
  401cb4:	bf f0 31 40 00       	mov    $0x4031f0,%edi
  401cb9:	e8 22 ef ff ff       	callq  400be0 <puts@plt>
  401cbe:	bf 8f 30 40 00       	mov    $0x40308f,%edi
  401cc3:	e8 18 ef ff ff       	callq  400be0 <puts@plt>
  401cc8:	be 00 00 00 00       	mov    $0x0,%esi
  401ccd:	bf 00 00 00 00       	mov    $0x0,%edi
  401cd2:	e8 45 fd ff ff       	callq  401a1c <notify_server>
  401cd7:	bf 01 00 00 00       	mov    $0x1,%edi
  401cdc:	e8 8f f0 ff ff       	callq  400d70 <exit@plt>

0000000000401ce1 <seghandler>:
  401ce1:	48 83 ec 08          	sub    $0x8,%rsp
  401ce5:	83 3d fc 27 20 00 00 	cmpl   $0x0,0x2027fc(%rip)        # 6044e8 <is_checker>
  401cec:	74 14                	je     401d02 <seghandler+0x21>
  401cee:	bf a5 30 40 00       	mov    $0x4030a5,%edi
  401cf3:	e8 e8 ee ff ff       	callq  400be0 <puts@plt>
  401cf8:	b8 00 00 00 00       	mov    $0x0,%eax
  401cfd:	e8 99 fc ff ff       	callq  40199b <check_fail>
  401d02:	bf 10 32 40 00       	mov    $0x403210,%edi
  401d07:	e8 d4 ee ff ff       	callq  400be0 <puts@plt>
  401d0c:	bf 8f 30 40 00       	mov    $0x40308f,%edi
  401d11:	e8 ca ee ff ff       	callq  400be0 <puts@plt>
  401d16:	be 00 00 00 00       	mov    $0x0,%esi
  401d1b:	bf 00 00 00 00       	mov    $0x0,%edi
  401d20:	e8 f7 fc ff ff       	callq  401a1c <notify_server>
  401d25:	bf 01 00 00 00       	mov    $0x1,%edi
  401d2a:	e8 41 f0 ff ff       	callq  400d70 <exit@plt>

0000000000401d2f <illegalhandler>:
  401d2f:	48 83 ec 08          	sub    $0x8,%rsp
  401d33:	83 3d ae 27 20 00 00 	cmpl   $0x0,0x2027ae(%rip)        # 6044e8 <is_checker>
  401d3a:	74 14                	je     401d50 <illegalhandler+0x21>
  401d3c:	bf b8 30 40 00       	mov    $0x4030b8,%edi
  401d41:	e8 9a ee ff ff       	callq  400be0 <puts@plt>
  401d46:	b8 00 00 00 00       	mov    $0x0,%eax
  401d4b:	e8 4b fc ff ff       	callq  40199b <check_fail>
  401d50:	bf 38 32 40 00       	mov    $0x403238,%edi
  401d55:	e8 86 ee ff ff       	callq  400be0 <puts@plt>
  401d5a:	bf 8f 30 40 00       	mov    $0x40308f,%edi
  401d5f:	e8 7c ee ff ff       	callq  400be0 <puts@plt>
  401d64:	be 00 00 00 00       	mov    $0x0,%esi
  401d69:	bf 00 00 00 00       	mov    $0x0,%edi
  401d6e:	e8 a9 fc ff ff       	callq  401a1c <notify_server>
  401d73:	bf 01 00 00 00       	mov    $0x1,%edi
  401d78:	e8 f3 ef ff ff       	callq  400d70 <exit@plt>

0000000000401d7d <sigalrmhandler>:
  401d7d:	48 83 ec 08          	sub    $0x8,%rsp
  401d81:	83 3d 60 27 20 00 00 	cmpl   $0x0,0x202760(%rip)        # 6044e8 <is_checker>
  401d88:	74 14                	je     401d9e <sigalrmhandler+0x21>
  401d8a:	bf cc 30 40 00       	mov    $0x4030cc,%edi
  401d8f:	e8 4c ee ff ff       	callq  400be0 <puts@plt>
  401d94:	b8 00 00 00 00       	mov    $0x0,%eax
  401d99:	e8 fd fb ff ff       	callq  40199b <check_fail>
  401d9e:	be 05 00 00 00       	mov    $0x5,%esi
  401da3:	bf 68 32 40 00       	mov    $0x403268,%edi
  401da8:	b8 00 00 00 00       	mov    $0x0,%eax
  401dad:	e8 5e ee ff ff       	callq  400c10 <printf@plt>
  401db2:	be 00 00 00 00       	mov    $0x0,%esi
  401db7:	bf 00 00 00 00       	mov    $0x0,%edi
  401dbc:	e8 5b fc ff ff       	callq  401a1c <notify_server>
  401dc1:	bf 01 00 00 00       	mov    $0x1,%edi
  401dc6:	e8 a5 ef ff ff       	callq  400d70 <exit@plt>

0000000000401dcb <launch>:
  401dcb:	55                   	push   %rbp
  401dcc:	48 89 e5             	mov    %rsp,%rbp
  401dcf:	48 89 fa             	mov    %rdi,%rdx
  401dd2:	48 8d 47 1e          	lea    0x1e(%rdi),%rax
  401dd6:	48 83 e0 f0          	and    $0xfffffffffffffff0,%rax
  401dda:	48 29 c4             	sub    %rax,%rsp
  401ddd:	48 8d 7c 24 0f       	lea    0xf(%rsp),%rdi
  401de2:	48 83 e7 f0          	and    $0xfffffffffffffff0,%rdi
  401de6:	be f4 00 00 00       	mov    $0xf4,%esi
  401deb:	e8 30 ee ff ff       	callq  400c20 <memset@plt>
  401df0:	48 8b 05 a9 26 20 00 	mov    0x2026a9(%rip),%rax        # 6044a0 <stdin@@GLIBC_2.2.5>
  401df7:	48 39 05 d2 26 20 00 	cmp    %rax,0x2026d2(%rip)        # 6044d0 <infile>
  401dfe:	75 0f                	jne    401e0f <launch+0x44>
  401e00:	bf d4 30 40 00       	mov    $0x4030d4,%edi
  401e05:	b8 00 00 00 00       	mov    $0x0,%eax
  401e0a:	e8 01 ee ff ff       	callq  400c10 <printf@plt>
  401e0f:	c7 05 c3 26 20 00 00 	movl   $0x0,0x2026c3(%rip)        # 6044dc <vlevel>
  401e16:	00 00 00 
  401e19:	b8 00 00 00 00       	mov    $0x0,%eax
  401e1e:	e8 e8 fa ff ff       	callq  40190b <test>
  401e23:	83 3d be 26 20 00 00 	cmpl   $0x0,0x2026be(%rip)        # 6044e8 <is_checker>
  401e2a:	74 14                	je     401e40 <launch+0x75>
  401e2c:	bf e1 30 40 00       	mov    $0x4030e1,%edi
  401e31:	e8 aa ed ff ff       	callq  400be0 <puts@plt>
  401e36:	b8 00 00 00 00       	mov    $0x0,%eax
  401e3b:	e8 5b fb ff ff       	callq  40199b <check_fail>
  401e40:	bf ec 30 40 00       	mov    $0x4030ec,%edi
  401e45:	e8 96 ed ff ff       	callq  400be0 <puts@plt>
  401e4a:	c9                   	leaveq 
  401e4b:	c3                   	retq   

0000000000401e4c <stable_launch>:
  401e4c:	53                   	push   %rbx
  401e4d:	48 89 3d 74 26 20 00 	mov    %rdi,0x202674(%rip)        # 6044c8 <global_offset>
  401e54:	41 b9 00 00 00 00    	mov    $0x0,%r9d
  401e5a:	41 b8 00 00 00 00    	mov    $0x0,%r8d
  401e60:	b9 32 01 00 00       	mov    $0x132,%ecx
  401e65:	ba 07 00 00 00       	mov    $0x7,%edx
  401e6a:	be 00 00 10 00       	mov    $0x100000,%esi
  401e6f:	bf 00 60 58 55       	mov    $0x55586000,%edi
  401e74:	e8 87 ed ff ff       	callq  400c00 <mmap@plt>
  401e79:	48 89 c3             	mov    %rax,%rbx
  401e7c:	48 3d 00 60 58 55    	cmp    $0x55586000,%rax
  401e82:	74 32                	je     401eb6 <stable_launch+0x6a>
  401e84:	be 00 00 10 00       	mov    $0x100000,%esi
  401e89:	48 89 c7             	mov    %rax,%rdi
  401e8c:	e8 6f ee ff ff       	callq  400d00 <munmap@plt>
  401e91:	ba 00 60 58 55       	mov    $0x55586000,%edx
  401e96:	be a0 32 40 00       	mov    $0x4032a0,%esi
  401e9b:	48 8b 3d 0e 26 20 00 	mov    0x20260e(%rip),%rdi        # 6044b0 <stderr@@GLIBC_2.2.5>
  401ea2:	b8 00 00 00 00       	mov    $0x0,%eax
  401ea7:	e8 e4 ed ff ff       	callq  400c90 <fprintf@plt>
  401eac:	bf 01 00 00 00       	mov    $0x1,%edi
  401eb1:	e8 ba ee ff ff       	callq  400d70 <exit@plt>
  401eb6:	48 8d 90 f8 ff 0f 00 	lea    0xffff8(%rax),%rdx
  401ebd:	48 89 15 4c 32 20 00 	mov    %rdx,0x20324c(%rip)        # 605110 <stack_top>
  401ec4:	48 89 e0             	mov    %rsp,%rax
  401ec7:	48 89 d4             	mov    %rdx,%rsp
  401eca:	48 89 c2             	mov    %rax,%rdx
  401ecd:	48 89 15 ec 25 20 00 	mov    %rdx,0x2025ec(%rip)        # 6044c0 <global_save_stack>
  401ed4:	48 8b 3d ed 25 20 00 	mov    0x2025ed(%rip),%rdi        # 6044c8 <global_offset>
  401edb:	e8 eb fe ff ff       	callq  401dcb <launch>
  401ee0:	48 8b 05 d9 25 20 00 	mov    0x2025d9(%rip),%rax        # 6044c0 <global_save_stack>
  401ee7:	48 89 c4             	mov    %rax,%rsp
  401eea:	be 00 00 10 00       	mov    $0x100000,%esi
  401eef:	48 89 df             	mov    %rbx,%rdi
  401ef2:	e8 09 ee ff ff       	callq  400d00 <munmap@plt>
  401ef7:	5b                   	pop    %rbx
  401ef8:	c3                   	retq   
  401ef9:	0f 1f 80 00 00 00 00 	nopl   0x0(%rax)

0000000000401f00 <rio_readinitb>:
  401f00:	89 37                	mov    %esi,(%rdi)
  401f02:	c7 47 04 00 00 00 00 	movl   $0x0,0x4(%rdi)
  401f09:	48 8d 47 10          	lea    0x10(%rdi),%rax
  401f0d:	48 89 47 08          	mov    %rax,0x8(%rdi)
  401f11:	c3                   	retq   

0000000000401f12 <sigalrm_handler>:
  401f12:	48 83 ec 08          	sub    $0x8,%rsp
  401f16:	ba 00 00 00 00       	mov    $0x0,%edx
  401f1b:	be e0 32 40 00       	mov    $0x4032e0,%esi
  401f20:	48 8b 3d 89 25 20 00 	mov    0x202589(%rip),%rdi        # 6044b0 <stderr@@GLIBC_2.2.5>
  401f27:	b8 00 00 00 00       	mov    $0x0,%eax
  401f2c:	e8 5f ed ff ff       	callq  400c90 <fprintf@plt>
  401f31:	bf 01 00 00 00       	mov    $0x1,%edi
  401f36:	e8 35 ee ff ff       	callq  400d70 <exit@plt>

0000000000401f3b <urlencode>:
  401f3b:	41 54                	push   %r12
  401f3d:	55                   	push   %rbp
  401f3e:	53                   	push   %rbx
  401f3f:	48 83 ec 10          	sub    $0x10,%rsp
  401f43:	48 89 fb             	mov    %rdi,%rbx
  401f46:	48 89 f5             	mov    %rsi,%rbp
  401f49:	b8 00 00 00 00       	mov    $0x0,%eax
  401f4e:	48 c7 c1 ff ff ff ff 	mov    $0xffffffffffffffff,%rcx
  401f55:	f2 ae                	repnz scas %es:(%rdi),%al
  401f57:	48 f7 d1             	not    %rcx
  401f5a:	8d 41 ff             	lea    -0x1(%rcx),%eax
  401f5d:	e9 93 00 00 00       	jmpq   401ff5 <urlencode+0xba>
  401f62:	0f b6 13             	movzbl (%rbx),%edx
  401f65:	80 fa 2a             	cmp    $0x2a,%dl
  401f68:	0f 94 c1             	sete   %cl
  401f6b:	80 fa 2d             	cmp    $0x2d,%dl
  401f6e:	0f 94 c0             	sete   %al
  401f71:	08 c1                	or     %al,%cl
  401f73:	75 1f                	jne    401f94 <urlencode+0x59>
  401f75:	80 fa 2e             	cmp    $0x2e,%dl
  401f78:	74 1a                	je     401f94 <urlencode+0x59>
  401f7a:	80 fa 5f             	cmp    $0x5f,%dl
  401f7d:	74 15                	je     401f94 <urlencode+0x59>
  401f7f:	8d 42 d0             	lea    -0x30(%rdx),%eax
  401f82:	3c 09                	cmp    $0x9,%al
  401f84:	76 0e                	jbe    401f94 <urlencode+0x59>
  401f86:	8d 42 bf             	lea    -0x41(%rdx),%eax
  401f89:	3c 19                	cmp    $0x19,%al
  401f8b:	76 07                	jbe    401f94 <urlencode+0x59>
  401f8d:	8d 42 9f             	lea    -0x61(%rdx),%eax
  401f90:	3c 19                	cmp    $0x19,%al
  401f92:	77 09                	ja     401f9d <urlencode+0x62>
  401f94:	88 55 00             	mov    %dl,0x0(%rbp)
  401f97:	48 8d 6d 01          	lea    0x1(%rbp),%rbp
  401f9b:	eb 51                	jmp    401fee <urlencode+0xb3>
  401f9d:	80 fa 20             	cmp    $0x20,%dl
  401fa0:	75 0a                	jne    401fac <urlencode+0x71>
  401fa2:	c6 45 00 2b          	movb   $0x2b,0x0(%rbp)
  401fa6:	48 8d 6d 01          	lea    0x1(%rbp),%rbp
  401faa:	eb 42                	jmp    401fee <urlencode+0xb3>
  401fac:	8d 42 e0             	lea    -0x20(%rdx),%eax
  401faf:	3c 5f                	cmp    $0x5f,%al
  401fb1:	0f 96 c1             	setbe  %cl
  401fb4:	80 fa 09             	cmp    $0x9,%dl
  401fb7:	0f 94 c0             	sete   %al
  401fba:	08 c1                	or     %al,%cl
  401fbc:	74 45                	je     402003 <urlencode+0xc8>
  401fbe:	0f b6 d2             	movzbl %dl,%edx
  401fc1:	be 78 33 40 00       	mov    $0x403378,%esi
  401fc6:	48 89 e7             	mov    %rsp,%rdi
  401fc9:	b8 00 00 00 00       	mov    $0x0,%eax
  401fce:	e8 8d ed ff ff       	callq  400d60 <sprintf@plt>
  401fd3:	0f b6 04 24          	movzbl (%rsp),%eax
  401fd7:	88 45 00             	mov    %al,0x0(%rbp)
  401fda:	0f b6 44 24 01       	movzbl 0x1(%rsp),%eax
  401fdf:	88 45 01             	mov    %al,0x1(%rbp)
  401fe2:	0f b6 44 24 02       	movzbl 0x2(%rsp),%eax
  401fe7:	88 45 02             	mov    %al,0x2(%rbp)
  401fea:	48 8d 6d 03          	lea    0x3(%rbp),%rbp
  401fee:	48 83 c3 01          	add    $0x1,%rbx
  401ff2:	44 89 e0             	mov    %r12d,%eax
  401ff5:	44 8d 60 ff          	lea    -0x1(%rax),%r12d
  401ff9:	85 c0                	test   %eax,%eax
  401ffb:	0f 85 61 ff ff ff    	jne    401f62 <urlencode+0x27>
  402001:	eb 05                	jmp    402008 <urlencode+0xcd>
  402003:	b8 ff ff ff ff       	mov    $0xffffffff,%eax
  402008:	48 83 c4 10          	add    $0x10,%rsp
  40200c:	5b                   	pop    %rbx
  40200d:	5d                   	pop    %rbp
  40200e:	41 5c                	pop    %r12
  402010:	c3                   	retq   

0000000000402011 <rio_writen>:
  402011:	41 55                	push   %r13
  402013:	41 54                	push   %r12
  402015:	55                   	push   %rbp
  402016:	53                   	push   %rbx
  402017:	48 83 ec 08          	sub    $0x8,%rsp
  40201b:	41 89 fc             	mov    %edi,%r12d
  40201e:	48 89 f5             	mov    %rsi,%rbp
  402021:	49 89 d5             	mov    %rdx,%r13
  402024:	48 89 d3             	mov    %rdx,%rbx
  402027:	eb 28                	jmp    402051 <rio_writen+0x40>
  402029:	48 89 da             	mov    %rbx,%rdx
  40202c:	48 89 ee             	mov    %rbp,%rsi
  40202f:	44 89 e7             	mov    %r12d,%edi
  402032:	e8 b9 eb ff ff       	callq  400bf0 <write@plt>
  402037:	48 85 c0             	test   %rax,%rax
  40203a:	7f 0f                	jg     40204b <rio_writen+0x3a>
  40203c:	e8 5f eb ff ff       	callq  400ba0 <__errno_location@plt>
  402041:	83 38 04             	cmpl   $0x4,(%rax)
  402044:	75 15                	jne    40205b <rio_writen+0x4a>
  402046:	b8 00 00 00 00       	mov    $0x0,%eax
  40204b:	48 29 c3             	sub    %rax,%rbx
  40204e:	48 01 c5             	add    %rax,%rbp
  402051:	48 85 db             	test   %rbx,%rbx
  402054:	75 d3                	jne    402029 <rio_writen+0x18>
  402056:	4c 89 e8             	mov    %r13,%rax
  402059:	eb 07                	jmp    402062 <rio_writen+0x51>
  40205b:	48 c7 c0 ff ff ff ff 	mov    $0xffffffffffffffff,%rax
  402062:	48 83 c4 08          	add    $0x8,%rsp
  402066:	5b                   	pop    %rbx
  402067:	5d                   	pop    %rbp
  402068:	41 5c                	pop    %r12
  40206a:	41 5d                	pop    %r13
  40206c:	c3                   	retq   

000000000040206d <rio_read>:
  40206d:	41 56                	push   %r14
  40206f:	41 55                	push   %r13
  402071:	41 54                	push   %r12
  402073:	55                   	push   %rbp
  402074:	53                   	push   %rbx
  402075:	48 89 fb             	mov    %rdi,%rbx
  402078:	49 89 f6             	mov    %rsi,%r14
  40207b:	49 89 d5             	mov    %rdx,%r13
  40207e:	4c 8d 67 10          	lea    0x10(%rdi),%r12
  402082:	eb 2a                	jmp    4020ae <rio_read+0x41>
  402084:	ba 00 20 00 00       	mov    $0x2000,%edx
  402089:	4c 89 e6             	mov    %r12,%rsi
  40208c:	8b 3b                	mov    (%rbx),%edi
  40208e:	e8 bd eb ff ff       	callq  400c50 <read@plt>
  402093:	89 43 04             	mov    %eax,0x4(%rbx)
  402096:	85 c0                	test   %eax,%eax
  402098:	79 0c                	jns    4020a6 <rio_read+0x39>
  40209a:	e8 01 eb ff ff       	callq  400ba0 <__errno_location@plt>
  40209f:	83 38 04             	cmpl   $0x4,(%rax)
  4020a2:	74 0a                	je     4020ae <rio_read+0x41>
  4020a4:	eb 37                	jmp    4020dd <rio_read+0x70>
  4020a6:	85 c0                	test   %eax,%eax
  4020a8:	74 3c                	je     4020e6 <rio_read+0x79>
  4020aa:	4c 89 63 08          	mov    %r12,0x8(%rbx)
  4020ae:	8b 6b 04             	mov    0x4(%rbx),%ebp
  4020b1:	85 ed                	test   %ebp,%ebp
  4020b3:	7e cf                	jle    402084 <rio_read+0x17>
  4020b5:	89 e8                	mov    %ebp,%eax
  4020b7:	4c 39 e8             	cmp    %r13,%rax
  4020ba:	72 03                	jb     4020bf <rio_read+0x52>
  4020bc:	44 89 ed             	mov    %r13d,%ebp
  4020bf:	4c 63 e5             	movslq %ebp,%r12
  4020c2:	48 8b 73 08          	mov    0x8(%rbx),%rsi
  4020c6:	4c 89 e2             	mov    %r12,%rdx
  4020c9:	4c 89 f7             	mov    %r14,%rdi
  4020cc:	e8 df eb ff ff       	callq  400cb0 <memcpy@plt>
  4020d1:	4c 01 63 08          	add    %r12,0x8(%rbx)
  4020d5:	29 6b 04             	sub    %ebp,0x4(%rbx)
  4020d8:	4c 89 e0             	mov    %r12,%rax
  4020db:	eb 0e                	jmp    4020eb <rio_read+0x7e>
  4020dd:	48 c7 c0 ff ff ff ff 	mov    $0xffffffffffffffff,%rax
  4020e4:	eb 05                	jmp    4020eb <rio_read+0x7e>
  4020e6:	b8 00 00 00 00       	mov    $0x0,%eax
  4020eb:	5b                   	pop    %rbx
  4020ec:	5d                   	pop    %rbp
  4020ed:	41 5c                	pop    %r12
  4020ef:	41 5d                	pop    %r13
  4020f1:	41 5e                	pop    %r14
  4020f3:	c3                   	retq   

00000000004020f4 <rio_readlineb>:
  4020f4:	41 55                	push   %r13
  4020f6:	41 54                	push   %r12
  4020f8:	55                   	push   %rbp
  4020f9:	53                   	push   %rbx
  4020fa:	48 83 ec 18          	sub    $0x18,%rsp
  4020fe:	49 89 fd             	mov    %rdi,%r13
  402101:	48 89 f5             	mov    %rsi,%rbp
  402104:	49 89 d4             	mov    %rdx,%r12
  402107:	bb 01 00 00 00       	mov    $0x1,%ebx
  40210c:	eb 3d                	jmp    40214b <rio_readlineb+0x57>
  40210e:	ba 01 00 00 00       	mov    $0x1,%edx
  402113:	48 8d 74 24 0f       	lea    0xf(%rsp),%rsi
  402118:	4c 89 ef             	mov    %r13,%rdi
  40211b:	e8 4d ff ff ff       	callq  40206d <rio_read>
  402120:	83 f8 01             	cmp    $0x1,%eax
  402123:	75 12                	jne    402137 <rio_readlineb+0x43>
  402125:	48 8d 55 01          	lea    0x1(%rbp),%rdx
  402129:	0f b6 44 24 0f       	movzbl 0xf(%rsp),%eax
  40212e:	88 45 00             	mov    %al,0x0(%rbp)
  402131:	3c 0a                	cmp    $0xa,%al
  402133:	75 0f                	jne    402144 <rio_readlineb+0x50>
  402135:	eb 1b                	jmp    402152 <rio_readlineb+0x5e>
  402137:	85 c0                	test   %eax,%eax
  402139:	75 23                	jne    40215e <rio_readlineb+0x6a>
  40213b:	48 83 fb 01          	cmp    $0x1,%rbx
  40213f:	90                   	nop
  402140:	75 13                	jne    402155 <rio_readlineb+0x61>
  402142:	eb 23                	jmp    402167 <rio_readlineb+0x73>
  402144:	48 83 c3 01          	add    $0x1,%rbx
  402148:	48 89 d5             	mov    %rdx,%rbp
  40214b:	4c 39 e3             	cmp    %r12,%rbx
  40214e:	72 be                	jb     40210e <rio_readlineb+0x1a>
  402150:	eb 03                	jmp    402155 <rio_readlineb+0x61>
  402152:	48 89 d5             	mov    %rdx,%rbp
  402155:	c6 45 00 00          	movb   $0x0,0x0(%rbp)
  402159:	48 89 d8             	mov    %rbx,%rax
  40215c:	eb 0e                	jmp    40216c <rio_readlineb+0x78>
  40215e:	48 c7 c0 ff ff ff ff 	mov    $0xffffffffffffffff,%rax
  402165:	eb 05                	jmp    40216c <rio_readlineb+0x78>
  402167:	b8 00 00 00 00       	mov    $0x0,%eax
  40216c:	48 83 c4 18          	add    $0x18,%rsp
  402170:	5b                   	pop    %rbx
  402171:	5d                   	pop    %rbp
  402172:	41 5c                	pop    %r12
  402174:	41 5d                	pop    %r13
  402176:	c3                   	retq   

0000000000402177 <submitr>:
  402177:	41 57                	push   %r15
  402179:	41 56                	push   %r14
  40217b:	41 55                	push   %r13
  40217d:	41 54                	push   %r12
  40217f:	55                   	push   %rbp
  402180:	53                   	push   %rbx
  402181:	48 81 ec 48 a0 00 00 	sub    $0xa048,%rsp
  402188:	49 89 fc             	mov    %rdi,%r12
  40218b:	89 74 24 04          	mov    %esi,0x4(%rsp)
  40218f:	49 89 d7             	mov    %rdx,%r15
  402192:	49 89 ce             	mov    %rcx,%r14
  402195:	4c 89 44 24 08       	mov    %r8,0x8(%rsp)
  40219a:	4d 89 cd             	mov    %r9,%r13
  40219d:	48 8b 9c 24 80 a0 00 	mov    0xa080(%rsp),%rbx
  4021a4:	00 
  4021a5:	c7 84 24 1c 20 00 00 	movl   $0x0,0x201c(%rsp)
  4021ac:	00 00 00 00 
  4021b0:	ba 00 00 00 00       	mov    $0x0,%edx
  4021b5:	be 01 00 00 00       	mov    $0x1,%esi
  4021ba:	bf 02 00 00 00       	mov    $0x2,%edi
  4021bf:	e8 cc eb ff ff       	callq  400d90 <socket@plt>
  4021c4:	89 c5                	mov    %eax,%ebp
  4021c6:	85 c0                	test   %eax,%eax
  4021c8:	79 4e                	jns    402218 <submitr+0xa1>
  4021ca:	48 b8 45 72 72 6f 72 	movabs $0x43203a726f727245,%rax
  4021d1:	3a 20 43 
  4021d4:	48 89 03             	mov    %rax,(%rbx)
  4021d7:	48 b8 6c 69 65 6e 74 	movabs $0x6e7520746e65696c,%rax
  4021de:	20 75 6e 
  4021e1:	48 89 43 08          	mov    %rax,0x8(%rbx)
  4021e5:	48 b8 61 62 6c 65 20 	movabs $0x206f7420656c6261,%rax
  4021ec:	74 6f 20 
  4021ef:	48 89 43 10          	mov    %rax,0x10(%rbx)
  4021f3:	48 b8 63 72 65 61 74 	movabs $0x7320657461657263,%rax
  4021fa:	65 20 73 
  4021fd:	48 89 43 18          	mov    %rax,0x18(%rbx)
  402201:	c7 43 20 6f 63 6b 65 	movl   $0x656b636f,0x20(%rbx)
  402208:	66 c7 43 24 74 00    	movw   $0x74,0x24(%rbx)
  40220e:	b8 ff ff ff ff       	mov    $0xffffffff,%eax
  402213:	e9 68 06 00 00       	jmpq   402880 <submitr+0x709>
  402218:	4c 89 e7             	mov    %r12,%rdi
  40221b:	e8 60 ea ff ff       	callq  400c80 <gethostbyname@plt>
  402220:	48 85 c0             	test   %rax,%rax
  402223:	75 67                	jne    40228c <submitr+0x115>
  402225:	48 b8 45 72 72 6f 72 	movabs $0x44203a726f727245,%rax
  40222c:	3a 20 44 
  40222f:	48 89 03             	mov    %rax,(%rbx)
  402232:	48 b8 4e 53 20 69 73 	movabs $0x6e7520736920534e,%rax
  402239:	20 75 6e 
  40223c:	48 89 43 08          	mov    %rax,0x8(%rbx)
  402240:	48 b8 61 62 6c 65 20 	movabs $0x206f7420656c6261,%rax
  402247:	74 6f 20 
  40224a:	48 89 43 10          	mov    %rax,0x10(%rbx)
  40224e:	48 b8 72 65 73 6f 6c 	movabs $0x2065766c6f736572,%rax
  402255:	76 65 20 
  402258:	48 89 43 18          	mov    %rax,0x18(%rbx)
  40225c:	48 b8 73 65 72 76 65 	movabs $0x6120726576726573,%rax
  402263:	72 20 61 
  402266:	48 89 43 20          	mov    %rax,0x20(%rbx)
  40226a:	c7 43 28 64 64 72 65 	movl   $0x65726464,0x28(%rbx)
  402271:	66 c7 43 2c 73 73    	movw   $0x7373,0x2c(%rbx)
  402277:	c6 43 2e 00          	movb   $0x0,0x2e(%rbx)
  40227b:	89 ef                	mov    %ebp,%edi
  40227d:	e8 be e9 ff ff       	callq  400c40 <close@plt>
  402282:	b8 ff ff ff ff       	mov    $0xffffffff,%eax
  402287:	e9 f4 05 00 00       	jmpq   402880 <submitr+0x709>
  40228c:	48 c7 84 24 30 a0 00 	movq   $0x0,0xa030(%rsp)
  402293:	00 00 00 00 00 
  402298:	48 c7 84 24 38 a0 00 	movq   $0x0,0xa038(%rsp)
  40229f:	00 00 00 00 00 
  4022a4:	66 c7 84 24 30 a0 00 	movw   $0x2,0xa030(%rsp)
  4022ab:	00 02 00 
  4022ae:	48 8b 48 18          	mov    0x18(%rax),%rcx
  4022b2:	48 63 50 14          	movslq 0x14(%rax),%rdx
  4022b6:	48 8d b4 24 34 a0 00 	lea    0xa034(%rsp),%rsi
  4022bd:	00 
  4022be:	48 8b 39             	mov    (%rcx),%rdi
  4022c1:	e8 4a ea ff ff       	callq  400d10 <bcopy@plt>
  4022c6:	0f b7 44 24 04       	movzwl 0x4(%rsp),%eax
  4022cb:	66 c1 c8 08          	ror    $0x8,%ax
  4022cf:	66 89 84 24 32 a0 00 	mov    %ax,0xa032(%rsp)
  4022d6:	00 
  4022d7:	ba 10 00 00 00       	mov    $0x10,%edx
  4022dc:	48 8d b4 24 30 a0 00 	lea    0xa030(%rsp),%rsi
  4022e3:	00 
  4022e4:	89 ef                	mov    %ebp,%edi
  4022e6:	e8 95 ea ff ff       	callq  400d80 <connect@plt>
  4022eb:	85 c0                	test   %eax,%eax
  4022ed:	79 59                	jns    402348 <submitr+0x1d1>
  4022ef:	48 b8 45 72 72 6f 72 	movabs $0x55203a726f727245,%rax
  4022f6:	3a 20 55 
  4022f9:	48 89 03             	mov    %rax,(%rbx)
  4022fc:	48 b8 6e 61 62 6c 65 	movabs $0x6f7420656c62616e,%rax
  402303:	20 74 6f 
  402306:	48 89 43 08          	mov    %rax,0x8(%rbx)
  40230a:	48 b8 20 63 6f 6e 6e 	movabs $0x7463656e6e6f6320,%rax
  402311:	65 63 74 
  402314:	48 89 43 10          	mov    %rax,0x10(%rbx)
  402318:	48 b8 20 74 6f 20 74 	movabs $0x20656874206f7420,%rax
  40231f:	68 65 20 
  402322:	48 89 43 18          	mov    %rax,0x18(%rbx)
  402326:	c7 43 20 73 65 72 76 	movl   $0x76726573,0x20(%rbx)
  40232d:	66 c7 43 24 65 72    	movw   $0x7265,0x24(%rbx)
  402333:	c6 43 26 00          	movb   $0x0,0x26(%rbx)
  402337:	89 ef                	mov    %ebp,%edi
  402339:	e8 02 e9 ff ff       	callq  400c40 <close@plt>
  40233e:	b8 ff ff ff ff       	mov    $0xffffffff,%eax
  402343:	e9 38 05 00 00       	jmpq   402880 <submitr+0x709>
  402348:	48 c7 c2 ff ff ff ff 	mov    $0xffffffffffffffff,%rdx
  40234f:	4c 89 ef             	mov    %r13,%rdi
  402352:	b8 00 00 00 00       	mov    $0x0,%eax
  402357:	48 89 d1             	mov    %rdx,%rcx
  40235a:	f2 ae                	repnz scas %es:(%rdi),%al
  40235c:	48 f7 d1             	not    %rcx
  40235f:	48 89 ce             	mov    %rcx,%rsi
  402362:	4c 89 ff             	mov    %r15,%rdi
  402365:	48 89 d1             	mov    %rdx,%rcx
  402368:	f2 ae                	repnz scas %es:(%rdi),%al
  40236a:	48 f7 d1             	not    %rcx
  40236d:	49 89 c8             	mov    %rcx,%r8
  402370:	4c 89 f7             	mov    %r14,%rdi
  402373:	48 89 d1             	mov    %rdx,%rcx
  402376:	f2 ae                	repnz scas %es:(%rdi),%al
  402378:	49 29 c8             	sub    %rcx,%r8
  40237b:	48 8b 7c 24 08       	mov    0x8(%rsp),%rdi
  402380:	48 89 d1             	mov    %rdx,%rcx
  402383:	f2 ae                	repnz scas %es:(%rdi),%al
  402385:	49 29 c8             	sub    %rcx,%r8
  402388:	48 8d 44 76 fd       	lea    -0x3(%rsi,%rsi,2),%rax
  40238d:	49 8d 44 00 7b       	lea    0x7b(%r8,%rax,1),%rax
  402392:	48 3d 00 20 00 00    	cmp    $0x2000,%rax
  402398:	76 72                	jbe    40240c <submitr+0x295>
  40239a:	48 b8 45 72 72 6f 72 	movabs $0x52203a726f727245,%rax
  4023a1:	3a 20 52 
  4023a4:	48 89 03             	mov    %rax,(%rbx)
  4023a7:	48 b8 65 73 75 6c 74 	movabs $0x747320746c757365,%rax
  4023ae:	20 73 74 
  4023b1:	48 89 43 08          	mov    %rax,0x8(%rbx)
  4023b5:	48 b8 72 69 6e 67 20 	movabs $0x6f6f7420676e6972,%rax
  4023bc:	74 6f 6f 
  4023bf:	48 89 43 10          	mov    %rax,0x10(%rbx)
  4023c3:	48 b8 20 6c 61 72 67 	movabs $0x202e656772616c20,%rax
  4023ca:	65 2e 20 
  4023cd:	48 89 43 18          	mov    %rax,0x18(%rbx)
  4023d1:	48 b8 49 6e 63 72 65 	movabs $0x6573616572636e49,%rax
  4023d8:	61 73 65 
  4023db:	48 89 43 20          	mov    %rax,0x20(%rbx)
  4023df:	48 b8 20 53 55 42 4d 	movabs $0x5254494d42555320,%rax
  4023e6:	49 54 52 
  4023e9:	48 89 43 28          	mov    %rax,0x28(%rbx)
  4023ed:	48 b8 5f 4d 41 58 42 	movabs $0x46554258414d5f,%rax
  4023f4:	55 46 00 
  4023f7:	48 89 43 30          	mov    %rax,0x30(%rbx)
  4023fb:	89 ef                	mov    %ebp,%edi
  4023fd:	e8 3e e8 ff ff       	callq  400c40 <close@plt>
  402402:	b8 ff ff ff ff       	mov    $0xffffffff,%eax
  402407:	e9 74 04 00 00       	jmpq   402880 <submitr+0x709>
  40240c:	48 8d b4 24 20 40 00 	lea    0x4020(%rsp),%rsi
  402413:	00 
  402414:	b9 00 04 00 00       	mov    $0x400,%ecx
  402419:	b8 00 00 00 00       	mov    $0x0,%eax
  40241e:	48 89 f7             	mov    %rsi,%rdi
  402421:	f3 48 ab             	rep stos %rax,%es:(%rdi)
  402424:	4c 89 ef             	mov    %r13,%rdi
  402427:	e8 0f fb ff ff       	callq  401f3b <urlencode>
  40242c:	85 c0                	test   %eax,%eax
  40242e:	0f 89 8a 00 00 00    	jns    4024be <submitr+0x347>
  402434:	48 b8 45 72 72 6f 72 	movabs $0x52203a726f727245,%rax
  40243b:	3a 20 52 
  40243e:	48 89 03             	mov    %rax,(%rbx)
  402441:	48 b8 65 73 75 6c 74 	movabs $0x747320746c757365,%rax
  402448:	20 73 74 
  40244b:	48 89 43 08          	mov    %rax,0x8(%rbx)
  40244f:	48 b8 72 69 6e 67 20 	movabs $0x6e6f6320676e6972,%rax
  402456:	63 6f 6e 
  402459:	48 89 43 10          	mov    %rax,0x10(%rbx)
  40245d:	48 b8 74 61 69 6e 73 	movabs $0x6e6120736e696174,%rax
  402464:	20 61 6e 
  402467:	48 89 43 18          	mov    %rax,0x18(%rbx)
  40246b:	48 b8 20 69 6c 6c 65 	movabs $0x6c6167656c6c6920,%rax
  402472:	67 61 6c 
  402475:	48 89 43 20          	mov    %rax,0x20(%rbx)
  402479:	48 b8 20 6f 72 20 75 	movabs $0x72706e7520726f20,%rax
  402480:	6e 70 72 
  402483:	48 89 43 28          	mov    %rax,0x28(%rbx)
  402487:	48 b8 69 6e 74 61 62 	movabs $0x20656c6261746e69,%rax
  40248e:	6c 65 20 
  402491:	48 89 43 30          	mov    %rax,0x30(%rbx)
  402495:	48 b8 63 68 61 72 61 	movabs $0x6574636172616863,%rax
  40249c:	63 74 65 
  40249f:	48 89 43 38          	mov    %rax,0x38(%rbx)
  4024a3:	66 c7 43 40 72 2e    	movw   $0x2e72,0x40(%rbx)
  4024a9:	c6 43 42 00          	movb   $0x0,0x42(%rbx)
  4024ad:	89 ef                	mov    %ebp,%edi
  4024af:	e8 8c e7 ff ff       	callq  400c40 <close@plt>
  4024b4:	b8 ff ff ff ff       	mov    $0xffffffff,%eax
  4024b9:	e9 c2 03 00 00       	jmpq   402880 <submitr+0x709>
  4024be:	4d 89 e1             	mov    %r12,%r9
  4024c1:	4c 8d 84 24 20 40 00 	lea    0x4020(%rsp),%r8
  4024c8:	00 
  4024c9:	4c 89 f9             	mov    %r15,%rcx
  4024cc:	4c 89 f2             	mov    %r14,%rdx
  4024cf:	be 08 33 40 00       	mov    $0x403308,%esi
  4024d4:	48 8d bc 24 20 60 00 	lea    0x6020(%rsp),%rdi
  4024db:	00 
  4024dc:	b8 00 00 00 00       	mov    $0x0,%eax
  4024e1:	e8 7a e8 ff ff       	callq  400d60 <sprintf@plt>
  4024e6:	48 8d bc 24 20 60 00 	lea    0x6020(%rsp),%rdi
  4024ed:	00 
  4024ee:	b8 00 00 00 00       	mov    $0x0,%eax
  4024f3:	48 c7 c1 ff ff ff ff 	mov    $0xffffffffffffffff,%rcx
  4024fa:	f2 ae                	repnz scas %es:(%rdi),%al
  4024fc:	48 f7 d1             	not    %rcx
  4024ff:	48 8d 51 ff          	lea    -0x1(%rcx),%rdx
  402503:	48 8d b4 24 20 60 00 	lea    0x6020(%rsp),%rsi
  40250a:	00 
  40250b:	89 ef                	mov    %ebp,%edi
  40250d:	e8 ff fa ff ff       	callq  402011 <rio_writen>
  402512:	48 85 c0             	test   %rax,%rax
  402515:	79 6e                	jns    402585 <submitr+0x40e>
  402517:	48 b8 45 72 72 6f 72 	movabs $0x43203a726f727245,%rax
  40251e:	3a 20 43 
  402521:	48 89 03             	mov    %rax,(%rbx)
  402524:	48 b8 6c 69 65 6e 74 	movabs $0x6e7520746e65696c,%rax
  40252b:	20 75 6e 
  40252e:	48 89 43 08          	mov    %rax,0x8(%rbx)
  402532:	48 b8 61 62 6c 65 20 	movabs $0x206f7420656c6261,%rax
  402539:	74 6f 20 
  40253c:	48 89 43 10          	mov    %rax,0x10(%rbx)
  402540:	48 b8 77 72 69 74 65 	movabs $0x6f74206574697277,%rax
  402547:	20 74 6f 
  40254a:	48 89 43 18          	mov    %rax,0x18(%rbx)
  40254e:	48 b8 20 74 68 65 20 	movabs $0x7365722065687420,%rax
  402555:	72 65 73 
  402558:	48 89 43 20          	mov    %rax,0x20(%rbx)
  40255c:	48 b8 75 6c 74 20 73 	movabs $0x7672657320746c75,%rax
  402563:	65 72 76 
  402566:	48 89 43 28          	mov    %rax,0x28(%rbx)
  40256a:	66 c7 43 30 65 72    	movw   $0x7265,0x30(%rbx)
  402570:	c6 43 32 00          	movb   $0x0,0x32(%rbx)
  402574:	89 ef                	mov    %ebp,%edi
  402576:	e8 c5 e6 ff ff       	callq  400c40 <close@plt>
  40257b:	b8 ff ff ff ff       	mov    $0xffffffff,%eax
  402580:	e9 fb 02 00 00       	jmpq   402880 <submitr+0x709>
  402585:	89 ee                	mov    %ebp,%esi
  402587:	48 8d bc 24 20 80 00 	lea    0x8020(%rsp),%rdi
  40258e:	00 
  40258f:	e8 6c f9 ff ff       	callq  401f00 <rio_readinitb>
  402594:	ba 00 20 00 00       	mov    $0x2000,%edx
  402599:	48 8d b4 24 20 60 00 	lea    0x6020(%rsp),%rsi
  4025a0:	00 
  4025a1:	48 8d bc 24 20 80 00 	lea    0x8020(%rsp),%rdi
  4025a8:	00 
  4025a9:	e8 46 fb ff ff       	callq  4020f4 <rio_readlineb>
  4025ae:	48 85 c0             	test   %rax,%rax
  4025b1:	7f 7d                	jg     402630 <submitr+0x4b9>
  4025b3:	48 b8 45 72 72 6f 72 	movabs $0x43203a726f727245,%rax
  4025ba:	3a 20 43 
  4025bd:	48 89 03             	mov    %rax,(%rbx)
  4025c0:	48 b8 6c 69 65 6e 74 	movabs $0x6e7520746e65696c,%rax
  4025c7:	20 75 6e 
  4025ca:	48 89 43 08          	mov    %rax,0x8(%rbx)
  4025ce:	48 b8 61 62 6c 65 20 	movabs $0x206f7420656c6261,%rax
  4025d5:	74 6f 20 
  4025d8:	48 89 43 10          	mov    %rax,0x10(%rbx)
  4025dc:	48 b8 72 65 61 64 20 	movabs $0x7269662064616572,%rax
  4025e3:	66 69 72 
  4025e6:	48 89 43 18          	mov    %rax,0x18(%rbx)
  4025ea:	48 b8 73 74 20 68 65 	movabs $0x6564616568207473,%rax
  4025f1:	61 64 65 
  4025f4:	48 89 43 20          	mov    %rax,0x20(%rbx)
  4025f8:	48 b8 72 20 66 72 6f 	movabs $0x72206d6f72662072,%rax
  4025ff:	6d 20 72 
  402602:	48 89 43 28          	mov    %rax,0x28(%rbx)
  402606:	48 b8 65 73 75 6c 74 	movabs $0x657320746c757365,%rax
  40260d:	20 73 65 
  402610:	48 89 43 30          	mov    %rax,0x30(%rbx)
  402614:	c7 43 38 72 76 65 72 	movl   $0x72657672,0x38(%rbx)
  40261b:	c6 43 3c 00          	movb   $0x0,0x3c(%rbx)
  40261f:	89 ef                	mov    %ebp,%edi
  402621:	e8 1a e6 ff ff       	callq  400c40 <close@plt>
  402626:	b8 ff ff ff ff       	mov    $0xffffffff,%eax
  40262b:	e9 50 02 00 00       	jmpq   402880 <submitr+0x709>
  402630:	4c 8d 44 24 10       	lea    0x10(%rsp),%r8
  402635:	48 8d 8c 24 1c 20 00 	lea    0x201c(%rsp),%rcx
  40263c:	00 
  40263d:	48 8d 94 24 20 20 00 	lea    0x2020(%rsp),%rdx
  402644:	00 
  402645:	be 7f 33 40 00       	mov    $0x40337f,%esi
  40264a:	48 8d bc 24 20 60 00 	lea    0x6020(%rsp),%rdi
  402651:	00 
  402652:	b8 00 00 00 00       	mov    $0x0,%eax
  402657:	e8 94 e6 ff ff       	callq  400cf0 <__isoc99_sscanf@plt>
  40265c:	e9 98 00 00 00       	jmpq   4026f9 <submitr+0x582>
  402661:	ba 00 20 00 00       	mov    $0x2000,%edx
  402666:	48 8d b4 24 20 60 00 	lea    0x6020(%rsp),%rsi
  40266d:	00 
  40266e:	48 8d bc 24 20 80 00 	lea    0x8020(%rsp),%rdi
  402675:	00 
  402676:	e8 79 fa ff ff       	callq  4020f4 <rio_readlineb>
  40267b:	48 85 c0             	test   %rax,%rax
  40267e:	7f 79                	jg     4026f9 <submitr+0x582>
  402680:	48 b8 45 72 72 6f 72 	movabs $0x43203a726f727245,%rax
  402687:	3a 20 43 
  40268a:	48 89 03             	mov    %rax,(%rbx)
  40268d:	48 b8 6c 69 65 6e 74 	movabs $0x6e7520746e65696c,%rax
  402694:	20 75 6e 
  402697:	48 89 43 08          	mov    %rax,0x8(%rbx)
  40269b:	48 b8 61 62 6c 65 20 	movabs $0x206f7420656c6261,%rax
  4026a2:	74 6f 20 
  4026a5:	48 89 43 10          	mov    %rax,0x10(%rbx)
  4026a9:	48 b8 72 65 61 64 20 	movabs $0x6165682064616572,%rax
  4026b0:	68 65 61 
  4026b3:	48 89 43 18          	mov    %rax,0x18(%rbx)
  4026b7:	48 b8 64 65 72 73 20 	movabs $0x6f72662073726564,%rax
  4026be:	66 72 6f 
  4026c1:	48 89 43 20          	mov    %rax,0x20(%rbx)
  4026c5:	48 b8 6d 20 74 68 65 	movabs $0x657220656874206d,%rax
  4026cc:	20 72 65 
  4026cf:	48 89 43 28          	mov    %rax,0x28(%rbx)
  4026d3:	48 b8 73 75 6c 74 20 	movabs $0x72657320746c7573,%rax
  4026da:	73 65 72 
  4026dd:	48 89 43 30          	mov    %rax,0x30(%rbx)
  4026e1:	c7 43 38 76 65 72 00 	movl   $0x726576,0x38(%rbx)
  4026e8:	89 ef                	mov    %ebp,%edi
  4026ea:	e8 51 e5 ff ff       	callq  400c40 <close@plt>
  4026ef:	b8 ff ff ff ff       	mov    $0xffffffff,%eax
  4026f4:	e9 87 01 00 00       	jmpq   402880 <submitr+0x709>
  4026f9:	0f b6 84 24 20 60 00 	movzbl 0x6020(%rsp),%eax
  402700:	00 
  402701:	83 e8 0d             	sub    $0xd,%eax
  402704:	75 15                	jne    40271b <submitr+0x5a4>
  402706:	0f b6 84 24 21 60 00 	movzbl 0x6021(%rsp),%eax
  40270d:	00 
  40270e:	83 e8 0a             	sub    $0xa,%eax
  402711:	75 08                	jne    40271b <submitr+0x5a4>
  402713:	0f b6 84 24 22 60 00 	movzbl 0x6022(%rsp),%eax
  40271a:	00 
  40271b:	85 c0                	test   %eax,%eax
  40271d:	0f 85 3e ff ff ff    	jne    402661 <submitr+0x4ea>
  402723:	ba 00 20 00 00       	mov    $0x2000,%edx
  402728:	48 8d b4 24 20 60 00 	lea    0x6020(%rsp),%rsi
  40272f:	00 
  402730:	48 8d bc 24 20 80 00 	lea    0x8020(%rsp),%rdi
  402737:	00 
  402738:	e8 b7 f9 ff ff       	callq  4020f4 <rio_readlineb>
  40273d:	48 85 c0             	test   %rax,%rax
  402740:	0f 8f 83 00 00 00    	jg     4027c9 <submitr+0x652>
  402746:	48 b8 45 72 72 6f 72 	movabs $0x43203a726f727245,%rax
  40274d:	3a 20 43 
  402750:	48 89 03             	mov    %rax,(%rbx)
  402753:	48 b8 6c 69 65 6e 74 	movabs $0x6e7520746e65696c,%rax
  40275a:	20 75 6e 
  40275d:	48 89 43 08          	mov    %rax,0x8(%rbx)
  402761:	48 b8 61 62 6c 65 20 	movabs $0x206f7420656c6261,%rax
  402768:	74 6f 20 
  40276b:	48 89 43 10          	mov    %rax,0x10(%rbx)
  40276f:	48 b8 72 65 61 64 20 	movabs $0x6174732064616572,%rax
  402776:	73 74 61 
  402779:	48 89 43 18          	mov    %rax,0x18(%rbx)
  40277d:	48 b8 74 75 73 20 6d 	movabs $0x7373656d20737574,%rax
  402784:	65 73 73 
  402787:	48 89 43 20          	mov    %rax,0x20(%rbx)
  40278b:	48 b8 61 67 65 20 66 	movabs $0x6d6f726620656761,%rax
  402792:	72 6f 6d 
  402795:	48 89 43 28          	mov    %rax,0x28(%rbx)
  402799:	48 b8 20 72 65 73 75 	movabs $0x20746c7573657220,%rax
  4027a0:	6c 74 20 
  4027a3:	48 89 43 30          	mov    %rax,0x30(%rbx)
  4027a7:	c7 43 38 73 65 72 76 	movl   $0x76726573,0x38(%rbx)
  4027ae:	66 c7 43 3c 65 72    	movw   $0x7265,0x3c(%rbx)
  4027b4:	c6 43 3e 00          	movb   $0x0,0x3e(%rbx)
  4027b8:	89 ef                	mov    %ebp,%edi
  4027ba:	e8 81 e4 ff ff       	callq  400c40 <close@plt>
  4027bf:	b8 ff ff ff ff       	mov    $0xffffffff,%eax
  4027c4:	e9 b7 00 00 00       	jmpq   402880 <submitr+0x709>
  4027c9:	8b 94 24 1c 20 00 00 	mov    0x201c(%rsp),%edx
  4027d0:	81 fa c8 00 00 00    	cmp    $0xc8,%edx
  4027d6:	74 28                	je     402800 <submitr+0x689>
  4027d8:	48 8d 4c 24 10       	lea    0x10(%rsp),%rcx
  4027dd:	be 48 33 40 00       	mov    $0x403348,%esi
  4027e2:	48 89 df             	mov    %rbx,%rdi
  4027e5:	b8 00 00 00 00       	mov    $0x0,%eax
  4027ea:	e8 71 e5 ff ff       	callq  400d60 <sprintf@plt>
  4027ef:	89 ef                	mov    %ebp,%edi
  4027f1:	e8 4a e4 ff ff       	callq  400c40 <close@plt>
  4027f6:	b8 ff ff ff ff       	mov    $0xffffffff,%eax
  4027fb:	e9 80 00 00 00       	jmpq   402880 <submitr+0x709>
  402800:	48 8d b4 24 20 60 00 	lea    0x6020(%rsp),%rsi
  402807:	00 
  402808:	48 89 df             	mov    %rbx,%rdi
  40280b:	e8 c0 e3 ff ff       	callq  400bd0 <strcpy@plt>
  402810:	89 ef                	mov    %ebp,%edi
  402812:	e8 29 e4 ff ff       	callq  400c40 <close@plt>
  402817:	0f b6 03             	movzbl (%rbx),%eax
  40281a:	83 e8 4f             	sub    $0x4f,%eax
  40281d:	75 18                	jne    402837 <submitr+0x6c0>
  40281f:	0f b6 53 01          	movzbl 0x1(%rbx),%edx
  402823:	83 ea 4b             	sub    $0x4b,%edx
  402826:	75 11                	jne    402839 <submitr+0x6c2>
  402828:	0f b6 53 02          	movzbl 0x2(%rbx),%edx
  40282c:	83 ea 0a             	sub    $0xa,%edx
  40282f:	75 08                	jne    402839 <submitr+0x6c2>
  402831:	0f b6 53 03          	movzbl 0x3(%rbx),%edx
  402835:	eb 02                	jmp    402839 <submitr+0x6c2>
  402837:	89 c2                	mov    %eax,%edx
  402839:	85 d2                	test   %edx,%edx
  40283b:	74 30                	je     40286d <submitr+0x6f6>
  40283d:	bf 90 33 40 00       	mov    $0x403390,%edi
  402842:	b9 05 00 00 00       	mov    $0x5,%ecx
  402847:	48 89 de             	mov    %rbx,%rsi
  40284a:	f3 a6                	repz cmpsb %es:(%rdi),%ds:(%rsi)
  40284c:	0f 97 c1             	seta   %cl
  40284f:	0f 92 c2             	setb   %dl
  402852:	38 d1                	cmp    %dl,%cl
  402854:	74 1e                	je     402874 <submitr+0x6fd>
  402856:	85 c0                	test   %eax,%eax
  402858:	75 0d                	jne    402867 <submitr+0x6f0>
  40285a:	0f b6 43 01          	movzbl 0x1(%rbx),%eax
  40285e:	83 e8 4b             	sub    $0x4b,%eax
  402861:	75 04                	jne    402867 <submitr+0x6f0>
  402863:	0f b6 43 02          	movzbl 0x2(%rbx),%eax
  402867:	85 c0                	test   %eax,%eax
  402869:	75 10                	jne    40287b <submitr+0x704>
  40286b:	eb 13                	jmp    402880 <submitr+0x709>
  40286d:	b8 00 00 00 00       	mov    $0x0,%eax
  402872:	eb 0c                	jmp    402880 <submitr+0x709>
  402874:	b8 00 00 00 00       	mov    $0x0,%eax
  402879:	eb 05                	jmp    402880 <submitr+0x709>
  40287b:	b8 ff ff ff ff       	mov    $0xffffffff,%eax
  402880:	48 81 c4 48 a0 00 00 	add    $0xa048,%rsp
  402887:	5b                   	pop    %rbx
  402888:	5d                   	pop    %rbp
  402889:	41 5c                	pop    %r12
  40288b:	41 5d                	pop    %r13
  40288d:	41 5e                	pop    %r14
  40288f:	41 5f                	pop    %r15
  402891:	c3                   	retq   

0000000000402892 <init_timeout>:
  402892:	53                   	push   %rbx
  402893:	89 fb                	mov    %edi,%ebx
  402895:	85 ff                	test   %edi,%edi
  402897:	74 1f                	je     4028b8 <init_timeout+0x26>
  402899:	85 ff                	test   %edi,%edi
  40289b:	79 05                	jns    4028a2 <init_timeout+0x10>
  40289d:	bb 00 00 00 00       	mov    $0x0,%ebx
  4028a2:	be 12 1f 40 00       	mov    $0x401f12,%esi
  4028a7:	bf 0e 00 00 00       	mov    $0xe,%edi
  4028ac:	e8 bf e3 ff ff       	callq  400c70 <signal@plt>
  4028b1:	89 df                	mov    %ebx,%edi
  4028b3:	e8 78 e3 ff ff       	callq  400c30 <alarm@plt>
  4028b8:	5b                   	pop    %rbx
  4028b9:	c3                   	retq   

00000000004028ba <init_driver>:
  4028ba:	55                   	push   %rbp
  4028bb:	53                   	push   %rbx
  4028bc:	48 83 ec 18          	sub    $0x18,%rsp
  4028c0:	48 89 fd             	mov    %rdi,%rbp
  4028c3:	be 01 00 00 00       	mov    $0x1,%esi
  4028c8:	bf 0d 00 00 00       	mov    $0xd,%edi
  4028cd:	e8 9e e3 ff ff       	callq  400c70 <signal@plt>
  4028d2:	be 01 00 00 00       	mov    $0x1,%esi
  4028d7:	bf 1d 00 00 00       	mov    $0x1d,%edi
  4028dc:	e8 8f e3 ff ff       	callq  400c70 <signal@plt>
  4028e1:	be 01 00 00 00       	mov    $0x1,%esi
  4028e6:	bf 1d 00 00 00       	mov    $0x1d,%edi
  4028eb:	e8 80 e3 ff ff       	callq  400c70 <signal@plt>
  4028f0:	ba 00 00 00 00       	mov    $0x0,%edx
  4028f5:	be 01 00 00 00       	mov    $0x1,%esi
  4028fa:	bf 02 00 00 00       	mov    $0x2,%edi
  4028ff:	e8 8c e4 ff ff       	callq  400d90 <socket@plt>
  402904:	89 c3                	mov    %eax,%ebx
  402906:	85 c0                	test   %eax,%eax
  402908:	79 4f                	jns    402959 <init_driver+0x9f>
  40290a:	48 b8 45 72 72 6f 72 	movabs $0x43203a726f727245,%rax
  402911:	3a 20 43 
  402914:	48 89 45 00          	mov    %rax,0x0(%rbp)
  402918:	48 b8 6c 69 65 6e 74 	movabs $0x6e7520746e65696c,%rax
  40291f:	20 75 6e 
  402922:	48 89 45 08          	mov    %rax,0x8(%rbp)
  402926:	48 b8 61 62 6c 65 20 	movabs $0x206f7420656c6261,%rax
  40292d:	74 6f 20 
  402930:	48 89 45 10          	mov    %rax,0x10(%rbp)
  402934:	48 b8 63 72 65 61 74 	movabs $0x7320657461657263,%rax
  40293b:	65 20 73 
  40293e:	48 89 45 18          	mov    %rax,0x18(%rbp)
  402942:	c7 45 20 6f 63 6b 65 	movl   $0x656b636f,0x20(%rbp)
  402949:	66 c7 45 24 74 00    	movw   $0x74,0x24(%rbp)
  40294f:	b8 ff ff ff ff       	mov    $0xffffffff,%eax
  402954:	e9 23 01 00 00       	jmpq   402a7c <init_driver+0x1c2>
  402959:	bf 95 33 40 00       	mov    $0x403395,%edi
  40295e:	e8 1d e3 ff ff       	callq  400c80 <gethostbyname@plt>
  402963:	48 85 c0             	test   %rax,%rax
  402966:	75 68                	jne    4029d0 <init_driver+0x116>
  402968:	48 b8 45 72 72 6f 72 	movabs $0x44203a726f727245,%rax
  40296f:	3a 20 44 
  402972:	48 89 45 00          	mov    %rax,0x0(%rbp)
  402976:	48 b8 4e 53 20 69 73 	movabs $0x6e7520736920534e,%rax
  40297d:	20 75 6e 
  402980:	48 89 45 08          	mov    %rax,0x8(%rbp)
  402984:	48 b8 61 62 6c 65 20 	movabs $0x206f7420656c6261,%rax
  40298b:	74 6f 20 
  40298e:	48 89 45 10          	mov    %rax,0x10(%rbp)
  402992:	48 b8 72 65 73 6f 6c 	movabs $0x2065766c6f736572,%rax
  402999:	76 65 20 
  40299c:	48 89 45 18          	mov    %rax,0x18(%rbp)
  4029a0:	48 b8 73 65 72 76 65 	movabs $0x6120726576726573,%rax
  4029a7:	72 20 61 
  4029aa:	48 89 45 20          	mov    %rax,0x20(%rbp)
  4029ae:	c7 45 28 64 64 72 65 	movl   $0x65726464,0x28(%rbp)
  4029b5:	66 c7 45 2c 73 73    	movw   $0x7373,0x2c(%rbp)
  4029bb:	c6 45 2e 00          	movb   $0x0,0x2e(%rbp)
  4029bf:	89 df                	mov    %ebx,%edi
  4029c1:	e8 7a e2 ff ff       	callq  400c40 <close@plt>
  4029c6:	b8 ff ff ff ff       	mov    $0xffffffff,%eax
  4029cb:	e9 ac 00 00 00       	jmpq   402a7c <init_driver+0x1c2>
  4029d0:	48 c7 04 24 00 00 00 	movq   $0x0,(%rsp)
  4029d7:	00 
  4029d8:	48 c7 44 24 08 00 00 	movq   $0x0,0x8(%rsp)
  4029df:	00 00 
  4029e1:	66 c7 04 24 02 00    	movw   $0x2,(%rsp)
  4029e7:	48 8b 48 18          	mov    0x18(%rax),%rcx
  4029eb:	48 63 50 14          	movslq 0x14(%rax),%rdx
  4029ef:	48 8d 74 24 04       	lea    0x4(%rsp),%rsi
  4029f4:	48 8b 39             	mov    (%rcx),%rdi
  4029f7:	e8 14 e3 ff ff       	callq  400d10 <bcopy@plt>
  4029fc:	66 c7 44 24 02 3c 9a 	movw   $0x9a3c,0x2(%rsp)
  402a03:	ba 10 00 00 00       	mov    $0x10,%edx
  402a08:	48 89 e6             	mov    %rsp,%rsi
  402a0b:	89 df                	mov    %ebx,%edi
  402a0d:	e8 6e e3 ff ff       	callq  400d80 <connect@plt>
  402a12:	85 c0                	test   %eax,%eax
  402a14:	79 50                	jns    402a66 <init_driver+0x1ac>
  402a16:	48 b8 45 72 72 6f 72 	movabs $0x55203a726f727245,%rax
  402a1d:	3a 20 55 
  402a20:	48 89 45 00          	mov    %rax,0x0(%rbp)
  402a24:	48 b8 6e 61 62 6c 65 	movabs $0x6f7420656c62616e,%rax
  402a2b:	20 74 6f 
  402a2e:	48 89 45 08          	mov    %rax,0x8(%rbp)
  402a32:	48 b8 20 63 6f 6e 6e 	movabs $0x7463656e6e6f6320,%rax
  402a39:	65 63 74 
  402a3c:	48 89 45 10          	mov    %rax,0x10(%rbp)
  402a40:	48 b8 20 74 6f 20 73 	movabs $0x76726573206f7420,%rax
  402a47:	65 72 76 
  402a4a:	48 89 45 18          	mov    %rax,0x18(%rbp)
  402a4e:	66 c7 45 20 65 72    	movw   $0x7265,0x20(%rbp)
  402a54:	c6 45 22 00          	movb   $0x0,0x22(%rbp)
  402a58:	89 df                	mov    %ebx,%edi
  402a5a:	e8 e1 e1 ff ff       	callq  400c40 <close@plt>
  402a5f:	b8 ff ff ff ff       	mov    $0xffffffff,%eax
  402a64:	eb 16                	jmp    402a7c <init_driver+0x1c2>
  402a66:	89 df                	mov    %ebx,%edi
  402a68:	e8 d3 e1 ff ff       	callq  400c40 <close@plt>
  402a6d:	66 c7 45 00 4f 4b    	movw   $0x4b4f,0x0(%rbp)
  402a73:	c6 45 02 00          	movb   $0x0,0x2(%rbp)
  402a77:	b8 00 00 00 00       	mov    $0x0,%eax
  402a7c:	48 83 c4 18          	add    $0x18,%rsp
  402a80:	5b                   	pop    %rbx
  402a81:	5d                   	pop    %rbp
  402a82:	c3                   	retq   

0000000000402a83 <driver_post>:
  402a83:	53                   	push   %rbx
  402a84:	48 83 ec 10          	sub    $0x10,%rsp
  402a88:	4c 89 cb             	mov    %r9,%rbx
  402a8b:	45 85 c0             	test   %r8d,%r8d
  402a8e:	74 22                	je     402ab2 <driver_post+0x2f>
  402a90:	48 89 ce             	mov    %rcx,%rsi
  402a93:	bf a1 33 40 00       	mov    $0x4033a1,%edi
  402a98:	b8 00 00 00 00       	mov    $0x0,%eax
  402a9d:	e8 6e e1 ff ff       	callq  400c10 <printf@plt>
  402aa2:	66 c7 03 4f 4b       	movw   $0x4b4f,(%rbx)
  402aa7:	c6 43 02 00          	movb   $0x0,0x2(%rbx)
  402aab:	b8 00 00 00 00       	mov    $0x0,%eax
  402ab0:	eb 39                	jmp    402aeb <driver_post+0x68>
  402ab2:	48 85 ff             	test   %rdi,%rdi
  402ab5:	74 26                	je     402add <driver_post+0x5a>
  402ab7:	80 3f 00             	cmpb   $0x0,(%rdi)
  402aba:	74 21                	je     402add <driver_post+0x5a>
  402abc:	4c 89 0c 24          	mov    %r9,(%rsp)
  402ac0:	49 89 c9             	mov    %rcx,%r9
  402ac3:	49 89 d0             	mov    %rdx,%r8
  402ac6:	48 89 f9             	mov    %rdi,%rcx
  402ac9:	48 89 f2             	mov    %rsi,%rdx
  402acc:	be 9a 3c 00 00       	mov    $0x3c9a,%esi
  402ad1:	bf 95 33 40 00       	mov    $0x403395,%edi
  402ad6:	e8 9c f6 ff ff       	callq  402177 <submitr>
  402adb:	eb 0e                	jmp    402aeb <driver_post+0x68>
  402add:	66 c7 03 4f 4b       	movw   $0x4b4f,(%rbx)
  402ae2:	c6 43 02 00          	movb   $0x0,0x2(%rbx)
  402ae6:	b8 00 00 00 00       	mov    $0x0,%eax
  402aeb:	48 83 c4 10          	add    $0x10,%rsp
  402aef:	5b                   	pop    %rbx
  402af0:	c3                   	retq   

0000000000402af1 <check>:
  402af1:	89 f8                	mov    %edi,%eax
  402af3:	c1 e8 1c             	shr    $0x1c,%eax
  402af6:	85 c0                	test   %eax,%eax
  402af8:	74 1d                	je     402b17 <check+0x26>
  402afa:	b9 00 00 00 00       	mov    $0x0,%ecx
  402aff:	eb 0b                	jmp    402b0c <check+0x1b>
  402b01:	89 f8                	mov    %edi,%eax
  402b03:	d3 e8                	shr    %cl,%eax
  402b05:	3c 0a                	cmp    $0xa,%al
  402b07:	74 14                	je     402b1d <check+0x2c>
  402b09:	83 c1 08             	add    $0x8,%ecx
  402b0c:	83 f9 1f             	cmp    $0x1f,%ecx
  402b0f:	7e f0                	jle    402b01 <check+0x10>
  402b11:	b8 01 00 00 00       	mov    $0x1,%eax
  402b16:	c3                   	retq   
  402b17:	b8 00 00 00 00       	mov    $0x0,%eax
  402b1c:	c3                   	retq   
  402b1d:	b8 00 00 00 00       	mov    $0x0,%eax
  402b22:	c3                   	retq   

0000000000402b23 <gencookie>:
  402b23:	53                   	push   %rbx
  402b24:	83 c7 01             	add    $0x1,%edi
  402b27:	e8 84 e0 ff ff       	callq  400bb0 <srandom@plt>
  402b2c:	e8 9f e1 ff ff       	callq  400cd0 <random@plt>
  402b31:	89 c3                	mov    %eax,%ebx
  402b33:	89 c7                	mov    %eax,%edi
  402b35:	e8 b7 ff ff ff       	callq  402af1 <check>
  402b3a:	85 c0                	test   %eax,%eax
  402b3c:	74 ee                	je     402b2c <gencookie+0x9>
  402b3e:	89 d8                	mov    %ebx,%eax
  402b40:	5b                   	pop    %rbx
  402b41:	c3                   	retq   
  402b42:	66 2e 0f 1f 84 00 00 	nopw   %cs:0x0(%rax,%rax,1)
  402b49:	00 00 00 
  402b4c:	0f 1f 40 00          	nopl   0x0(%rax)

0000000000402b50 <__libc_csu_init>:
  402b50:	41 57                	push   %r15
  402b52:	41 89 ff             	mov    %edi,%r15d
  402b55:	41 56                	push   %r14
  402b57:	49 89 f6             	mov    %rsi,%r14
  402b5a:	41 55                	push   %r13
  402b5c:	49 89 d5             	mov    %rdx,%r13
  402b5f:	41 54                	push   %r12
  402b61:	4c 8d 25 a8 12 20 00 	lea    0x2012a8(%rip),%r12        # 603e10 <__frame_dummy_init_array_entry>
  402b68:	55                   	push   %rbp
  402b69:	48 8d 2d a8 12 20 00 	lea    0x2012a8(%rip),%rbp        # 603e18 <__init_array_end>
  402b70:	53                   	push   %rbx
  402b71:	4c 29 e5             	sub    %r12,%rbp
  402b74:	31 db                	xor    %ebx,%ebx
  402b76:	48 c1 fd 03          	sar    $0x3,%rbp
  402b7a:	48 83 ec 08          	sub    $0x8,%rsp
  402b7e:	e8 ed df ff ff       	callq  400b70 <_init>
  402b83:	48 85 ed             	test   %rbp,%rbp
  402b86:	74 1e                	je     402ba6 <__libc_csu_init+0x56>
  402b88:	0f 1f 84 00 00 00 00 	nopl   0x0(%rax,%rax,1)
  402b8f:	00 
  402b90:	4c 89 ea             	mov    %r13,%rdx
  402b93:	4c 89 f6             	mov    %r14,%rsi
  402b96:	44 89 ff             	mov    %r15d,%edi
  402b99:	41 ff 14 dc          	callq  *(%r12,%rbx,8)
  402b9d:	48 83 c3 01          	add    $0x1,%rbx
  402ba1:	48 39 eb             	cmp    %rbp,%rbx
  402ba4:	75 ea                	jne    402b90 <__libc_csu_init+0x40>
  402ba6:	48 83 c4 08          	add    $0x8,%rsp
  402baa:	5b                   	pop    %rbx
  402bab:	5d                   	pop    %rbp
  402bac:	41 5c                	pop    %r12
  402bae:	41 5d                	pop    %r13
  402bb0:	41 5e                	pop    %r14
  402bb2:	41 5f                	pop    %r15
  402bb4:	c3                   	retq   
  402bb5:	90                   	nop
  402bb6:	66 2e 0f 1f 84 00 00 	nopw   %cs:0x0(%rax,%rax,1)
  402bbd:	00 00 00 

0000000000402bc0 <__libc_csu_fini>:
  402bc0:	f3 c3                	repz retq 

Disassembly of section .fini:

0000000000402bc4 <_fini>:
  402bc4:	48 83 ec 08          	sub    $0x8,%rsp
  402bc8:	48 83 c4 08          	add    $0x8,%rsp
  402bcc:	c3                   	retq   
