
rtarget：     文件格式 elf64-x86-64


Disassembly of section .init:

0000000000400b70 <_init>:
  400b70:	48 83 ec 08          	sub    $0x8,%rsp
  400b74:	48 8b 05 7d 44 20 00 	mov    0x20447d(%rip),%rax        # 604ff8 <__gmon_start__>
  400b7b:	48 85 c0             	test   %rax,%rax
  400b7e:	74 05                	je     400b85 <_init+0x15>
  400b80:	e8 1b 02 00 00       	callq  400da0 <__gmon_start__@plt>
  400b85:	48 83 c4 08          	add    $0x8,%rsp
  400b89:	c3                   	retq   

Disassembly of section .plt:

0000000000400b90 <.plt>:
  400b90:	ff 35 72 44 20 00    	pushq  0x204472(%rip)        # 605008 <_GLOBAL_OFFSET_TABLE_+0x8>
  400b96:	ff 25 74 44 20 00    	jmpq   *0x204474(%rip)        # 605010 <_GLOBAL_OFFSET_TABLE_+0x10>
  400b9c:	0f 1f 40 00          	nopl   0x0(%rax)

0000000000400ba0 <__errno_location@plt>:
  400ba0:	ff 25 72 44 20 00    	jmpq   *0x204472(%rip)        # 605018 <__errno_location@GLIBC_2.2.5>
  400ba6:	68 00 00 00 00       	pushq  $0x0
  400bab:	e9 e0 ff ff ff       	jmpq   400b90 <.plt>

0000000000400bb0 <srandom@plt>:
  400bb0:	ff 25 6a 44 20 00    	jmpq   *0x20446a(%rip)        # 605020 <srandom@GLIBC_2.2.5>
  400bb6:	68 01 00 00 00       	pushq  $0x1
  400bbb:	e9 d0 ff ff ff       	jmpq   400b90 <.plt>

0000000000400bc0 <strncmp@plt>:
  400bc0:	ff 25 62 44 20 00    	jmpq   *0x204462(%rip)        # 605028 <strncmp@GLIBC_2.2.5>
  400bc6:	68 02 00 00 00       	pushq  $0x2
  400bcb:	e9 c0 ff ff ff       	jmpq   400b90 <.plt>

0000000000400bd0 <strcpy@plt>:
  400bd0:	ff 25 5a 44 20 00    	jmpq   *0x20445a(%rip)        # 605030 <strcpy@GLIBC_2.2.5>
  400bd6:	68 03 00 00 00       	pushq  $0x3
  400bdb:	e9 b0 ff ff ff       	jmpq   400b90 <.plt>

0000000000400be0 <puts@plt>:
  400be0:	ff 25 52 44 20 00    	jmpq   *0x204452(%rip)        # 605038 <puts@GLIBC_2.2.5>
  400be6:	68 04 00 00 00       	pushq  $0x4
  400beb:	e9 a0 ff ff ff       	jmpq   400b90 <.plt>

0000000000400bf0 <write@plt>:
  400bf0:	ff 25 4a 44 20 00    	jmpq   *0x20444a(%rip)        # 605040 <write@GLIBC_2.2.5>
  400bf6:	68 05 00 00 00       	pushq  $0x5
  400bfb:	e9 90 ff ff ff       	jmpq   400b90 <.plt>

0000000000400c00 <mmap@plt>:
  400c00:	ff 25 42 44 20 00    	jmpq   *0x204442(%rip)        # 605048 <mmap@GLIBC_2.2.5>
  400c06:	68 06 00 00 00       	pushq  $0x6
  400c0b:	e9 80 ff ff ff       	jmpq   400b90 <.plt>

0000000000400c10 <printf@plt>:
  400c10:	ff 25 3a 44 20 00    	jmpq   *0x20443a(%rip)        # 605050 <printf@GLIBC_2.2.5>
  400c16:	68 07 00 00 00       	pushq  $0x7
  400c1b:	e9 70 ff ff ff       	jmpq   400b90 <.plt>

0000000000400c20 <memset@plt>:
  400c20:	ff 25 32 44 20 00    	jmpq   *0x204432(%rip)        # 605058 <memset@GLIBC_2.2.5>
  400c26:	68 08 00 00 00       	pushq  $0x8
  400c2b:	e9 60 ff ff ff       	jmpq   400b90 <.plt>

0000000000400c30 <alarm@plt>:
  400c30:	ff 25 2a 44 20 00    	jmpq   *0x20442a(%rip)        # 605060 <alarm@GLIBC_2.2.5>
  400c36:	68 09 00 00 00       	pushq  $0x9
  400c3b:	e9 50 ff ff ff       	jmpq   400b90 <.plt>

0000000000400c40 <close@plt>:
  400c40:	ff 25 22 44 20 00    	jmpq   *0x204422(%rip)        # 605068 <close@GLIBC_2.2.5>
  400c46:	68 0a 00 00 00       	pushq  $0xa
  400c4b:	e9 40 ff ff ff       	jmpq   400b90 <.plt>

0000000000400c50 <read@plt>:
  400c50:	ff 25 1a 44 20 00    	jmpq   *0x20441a(%rip)        # 605070 <read@GLIBC_2.2.5>
  400c56:	68 0b 00 00 00       	pushq  $0xb
  400c5b:	e9 30 ff ff ff       	jmpq   400b90 <.plt>

0000000000400c60 <__libc_start_main@plt>:
  400c60:	ff 25 12 44 20 00    	jmpq   *0x204412(%rip)        # 605078 <__libc_start_main@GLIBC_2.2.5>
  400c66:	68 0c 00 00 00       	pushq  $0xc
  400c6b:	e9 20 ff ff ff       	jmpq   400b90 <.plt>

0000000000400c70 <signal@plt>:
  400c70:	ff 25 0a 44 20 00    	jmpq   *0x20440a(%rip)        # 605080 <signal@GLIBC_2.2.5>
  400c76:	68 0d 00 00 00       	pushq  $0xd
  400c7b:	e9 10 ff ff ff       	jmpq   400b90 <.plt>

0000000000400c80 <gethostbyname@plt>:
  400c80:	ff 25 02 44 20 00    	jmpq   *0x204402(%rip)        # 605088 <gethostbyname@GLIBC_2.2.5>
  400c86:	68 0e 00 00 00       	pushq  $0xe
  400c8b:	e9 00 ff ff ff       	jmpq   400b90 <.plt>

0000000000400c90 <fprintf@plt>:
  400c90:	ff 25 fa 43 20 00    	jmpq   *0x2043fa(%rip)        # 605090 <fprintf@GLIBC_2.2.5>
  400c96:	68 0f 00 00 00       	pushq  $0xf
  400c9b:	e9 f0 fe ff ff       	jmpq   400b90 <.plt>

0000000000400ca0 <strtol@plt>:
  400ca0:	ff 25 f2 43 20 00    	jmpq   *0x2043f2(%rip)        # 605098 <strtol@GLIBC_2.2.5>
  400ca6:	68 10 00 00 00       	pushq  $0x10
  400cab:	e9 e0 fe ff ff       	jmpq   400b90 <.plt>

0000000000400cb0 <memcpy@plt>:
  400cb0:	ff 25 ea 43 20 00    	jmpq   *0x2043ea(%rip)        # 6050a0 <memcpy@GLIBC_2.14>
  400cb6:	68 11 00 00 00       	pushq  $0x11
  400cbb:	e9 d0 fe ff ff       	jmpq   400b90 <.plt>

0000000000400cc0 <time@plt>:
  400cc0:	ff 25 e2 43 20 00    	jmpq   *0x2043e2(%rip)        # 6050a8 <time@GLIBC_2.2.5>
  400cc6:	68 12 00 00 00       	pushq  $0x12
  400ccb:	e9 c0 fe ff ff       	jmpq   400b90 <.plt>

0000000000400cd0 <random@plt>:
  400cd0:	ff 25 da 43 20 00    	jmpq   *0x2043da(%rip)        # 6050b0 <random@GLIBC_2.2.5>
  400cd6:	68 13 00 00 00       	pushq  $0x13
  400cdb:	e9 b0 fe ff ff       	jmpq   400b90 <.plt>

0000000000400ce0 <_IO_getc@plt>:
  400ce0:	ff 25 d2 43 20 00    	jmpq   *0x2043d2(%rip)        # 6050b8 <_IO_getc@GLIBC_2.2.5>
  400ce6:	68 14 00 00 00       	pushq  $0x14
  400ceb:	e9 a0 fe ff ff       	jmpq   400b90 <.plt>

0000000000400cf0 <__isoc99_sscanf@plt>:
  400cf0:	ff 25 ca 43 20 00    	jmpq   *0x2043ca(%rip)        # 6050c0 <__isoc99_sscanf@GLIBC_2.7>
  400cf6:	68 15 00 00 00       	pushq  $0x15
  400cfb:	e9 90 fe ff ff       	jmpq   400b90 <.plt>

0000000000400d00 <munmap@plt>:
  400d00:	ff 25 c2 43 20 00    	jmpq   *0x2043c2(%rip)        # 6050c8 <munmap@GLIBC_2.2.5>
  400d06:	68 16 00 00 00       	pushq  $0x16
  400d0b:	e9 80 fe ff ff       	jmpq   400b90 <.plt>

0000000000400d10 <bcopy@plt>:
  400d10:	ff 25 ba 43 20 00    	jmpq   *0x2043ba(%rip)        # 6050d0 <bcopy@GLIBC_2.2.5>
  400d16:	68 17 00 00 00       	pushq  $0x17
  400d1b:	e9 70 fe ff ff       	jmpq   400b90 <.plt>

0000000000400d20 <fopen@plt>:
  400d20:	ff 25 b2 43 20 00    	jmpq   *0x2043b2(%rip)        # 6050d8 <fopen@GLIBC_2.2.5>
  400d26:	68 18 00 00 00       	pushq  $0x18
  400d2b:	e9 60 fe ff ff       	jmpq   400b90 <.plt>

0000000000400d30 <getopt@plt>:
  400d30:	ff 25 aa 43 20 00    	jmpq   *0x2043aa(%rip)        # 6050e0 <getopt@GLIBC_2.2.5>
  400d36:	68 19 00 00 00       	pushq  $0x19
  400d3b:	e9 50 fe ff ff       	jmpq   400b90 <.plt>

0000000000400d40 <strtoul@plt>:
  400d40:	ff 25 a2 43 20 00    	jmpq   *0x2043a2(%rip)        # 6050e8 <strtoul@GLIBC_2.2.5>
  400d46:	68 1a 00 00 00       	pushq  $0x1a
  400d4b:	e9 40 fe ff ff       	jmpq   400b90 <.plt>

0000000000400d50 <gethostname@plt>:
  400d50:	ff 25 9a 43 20 00    	jmpq   *0x20439a(%rip)        # 6050f0 <gethostname@GLIBC_2.2.5>
  400d56:	68 1b 00 00 00       	pushq  $0x1b
  400d5b:	e9 30 fe ff ff       	jmpq   400b90 <.plt>

0000000000400d60 <sprintf@plt>:
  400d60:	ff 25 92 43 20 00    	jmpq   *0x204392(%rip)        # 6050f8 <sprintf@GLIBC_2.2.5>
  400d66:	68 1c 00 00 00       	pushq  $0x1c
  400d6b:	e9 20 fe ff ff       	jmpq   400b90 <.plt>

0000000000400d70 <exit@plt>:
  400d70:	ff 25 8a 43 20 00    	jmpq   *0x20438a(%rip)        # 605100 <exit@GLIBC_2.2.5>
  400d76:	68 1d 00 00 00       	pushq  $0x1d
  400d7b:	e9 10 fe ff ff       	jmpq   400b90 <.plt>

0000000000400d80 <connect@plt>:
  400d80:	ff 25 82 43 20 00    	jmpq   *0x204382(%rip)        # 605108 <connect@GLIBC_2.2.5>
  400d86:	68 1e 00 00 00       	pushq  $0x1e
  400d8b:	e9 00 fe ff ff       	jmpq   400b90 <.plt>

0000000000400d90 <socket@plt>:
  400d90:	ff 25 7a 43 20 00    	jmpq   *0x20437a(%rip)        # 605110 <socket@GLIBC_2.2.5>
  400d96:	68 1f 00 00 00       	pushq  $0x1f
  400d9b:	e9 f0 fd ff ff       	jmpq   400b90 <.plt>

Disassembly of section .plt.got:

0000000000400da0 <__gmon_start__@plt>:
  400da0:	ff 25 52 42 20 00    	jmpq   *0x204252(%rip)        # 604ff8 <__gmon_start__>
  400da6:	66 90                	xchg   %ax,%ax

Disassembly of section .text:

0000000000400db0 <_start>:
  400db0:	31 ed                	xor    %ebp,%ebp
  400db2:	49 89 d1             	mov    %rdx,%r9
  400db5:	5e                   	pop    %rsi
  400db6:	48 89 e2             	mov    %rsp,%rdx
  400db9:	48 83 e4 f0          	and    $0xfffffffffffffff0,%rsp
  400dbd:	50                   	push   %rax
  400dbe:	54                   	push   %rsp
  400dbf:	49 c7 c0 e0 2c 40 00 	mov    $0x402ce0,%r8
  400dc6:	48 c7 c1 70 2c 40 00 	mov    $0x402c70,%rcx
  400dcd:	48 c7 c7 1b 10 40 00 	mov    $0x40101b,%rdi
  400dd4:	e8 87 fe ff ff       	callq  400c60 <__libc_start_main@plt>
  400dd9:	f4                   	hlt    
  400dda:	66 0f 1f 44 00 00    	nopw   0x0(%rax,%rax,1)

0000000000400de0 <deregister_tm_clones>:
  400de0:	b8 97 54 60 00       	mov    $0x605497,%eax
  400de5:	55                   	push   %rbp
  400de6:	48 2d 90 54 60 00    	sub    $0x605490,%rax
  400dec:	48 83 f8 0e          	cmp    $0xe,%rax
  400df0:	48 89 e5             	mov    %rsp,%rbp
  400df3:	77 02                	ja     400df7 <deregister_tm_clones+0x17>
  400df5:	5d                   	pop    %rbp
  400df6:	c3                   	retq   
  400df7:	b8 00 00 00 00       	mov    $0x0,%eax
  400dfc:	48 85 c0             	test   %rax,%rax
  400dff:	74 f4                	je     400df5 <deregister_tm_clones+0x15>
  400e01:	5d                   	pop    %rbp
  400e02:	bf 90 54 60 00       	mov    $0x605490,%edi
  400e07:	ff e0                	jmpq   *%rax
  400e09:	0f 1f 80 00 00 00 00 	nopl   0x0(%rax)

0000000000400e10 <register_tm_clones>:
  400e10:	b8 90 54 60 00       	mov    $0x605490,%eax
  400e15:	55                   	push   %rbp
  400e16:	48 2d 90 54 60 00    	sub    $0x605490,%rax
  400e1c:	48 c1 f8 03          	sar    $0x3,%rax
  400e20:	48 89 e5             	mov    %rsp,%rbp
  400e23:	48 89 c2             	mov    %rax,%rdx
  400e26:	48 c1 ea 3f          	shr    $0x3f,%rdx
  400e2a:	48 01 d0             	add    %rdx,%rax
  400e2d:	48 d1 f8             	sar    %rax
  400e30:	75 02                	jne    400e34 <register_tm_clones+0x24>
  400e32:	5d                   	pop    %rbp
  400e33:	c3                   	retq   
  400e34:	ba 00 00 00 00       	mov    $0x0,%edx
  400e39:	48 85 d2             	test   %rdx,%rdx
  400e3c:	74 f4                	je     400e32 <register_tm_clones+0x22>
  400e3e:	5d                   	pop    %rbp
  400e3f:	48 89 c6             	mov    %rax,%rsi
  400e42:	bf 90 54 60 00       	mov    $0x605490,%edi
  400e47:	ff e2                	jmpq   *%rdx
  400e49:	0f 1f 80 00 00 00 00 	nopl   0x0(%rax)

0000000000400e50 <__do_global_dtors_aux>:
  400e50:	80 3d 61 46 20 00 00 	cmpb   $0x0,0x204661(%rip)        # 6054b8 <completed.6355>
  400e57:	75 11                	jne    400e6a <__do_global_dtors_aux+0x1a>
  400e59:	55                   	push   %rbp
  400e5a:	48 89 e5             	mov    %rsp,%rbp
  400e5d:	e8 7e ff ff ff       	callq  400de0 <deregister_tm_clones>
  400e62:	5d                   	pop    %rbp
  400e63:	c6 05 4e 46 20 00 01 	movb   $0x1,0x20464e(%rip)        # 6054b8 <completed.6355>
  400e6a:	f3 c3                	repz retq 
  400e6c:	0f 1f 40 00          	nopl   0x0(%rax)

0000000000400e70 <frame_dummy>:
  400e70:	48 83 3d a8 3f 20 00 	cmpq   $0x0,0x203fa8(%rip)        # 604e20 <__JCR_END__>
  400e77:	00 
  400e78:	74 1e                	je     400e98 <frame_dummy+0x28>
  400e7a:	b8 00 00 00 00       	mov    $0x0,%eax
  400e7f:	48 85 c0             	test   %rax,%rax
  400e82:	74 14                	je     400e98 <frame_dummy+0x28>
  400e84:	55                   	push   %rbp
  400e85:	bf 20 4e 60 00       	mov    $0x604e20,%edi
  400e8a:	48 89 e5             	mov    %rsp,%rbp
  400e8d:	ff d0                	callq  *%rax
  400e8f:	5d                   	pop    %rbp
  400e90:	e9 7b ff ff ff       	jmpq   400e10 <register_tm_clones>
  400e95:	0f 1f 00             	nopl   (%rax)
  400e98:	e9 73 ff ff ff       	jmpq   400e10 <register_tm_clones>
  400e9d:	0f 1f 00             	nopl   (%rax)

0000000000400ea0 <usage>:
  400ea0:	48 83 ec 08          	sub    $0x8,%rsp
  400ea4:	48 89 fe             	mov    %rdi,%rsi
  400ea7:	83 3d 3a 46 20 00 00 	cmpl   $0x0,0x20463a(%rip)        # 6054e8 <is_checker>
  400eae:	74 39                	je     400ee9 <usage+0x49>
  400eb0:	bf 00 2d 40 00       	mov    $0x402d00,%edi
  400eb5:	b8 00 00 00 00       	mov    $0x0,%eax
  400eba:	e8 51 fd ff ff       	callq  400c10 <printf@plt>
  400ebf:	bf 38 2d 40 00       	mov    $0x402d38,%edi
  400ec4:	e8 17 fd ff ff       	callq  400be0 <puts@plt>
  400ec9:	bf 70 2e 40 00       	mov    $0x402e70,%edi
  400ece:	e8 0d fd ff ff       	callq  400be0 <puts@plt>
  400ed3:	bf 60 2d 40 00       	mov    $0x402d60,%edi
  400ed8:	e8 03 fd ff ff       	callq  400be0 <puts@plt>
  400edd:	bf 8a 2e 40 00       	mov    $0x402e8a,%edi
  400ee2:	e8 f9 fc ff ff       	callq  400be0 <puts@plt>
  400ee7:	eb 2d                	jmp    400f16 <usage+0x76>
  400ee9:	bf a6 2e 40 00       	mov    $0x402ea6,%edi
  400eee:	b8 00 00 00 00       	mov    $0x0,%eax
  400ef3:	e8 18 fd ff ff       	callq  400c10 <printf@plt>
  400ef8:	bf 88 2d 40 00       	mov    $0x402d88,%edi
  400efd:	e8 de fc ff ff       	callq  400be0 <puts@plt>
  400f02:	bf b0 2d 40 00       	mov    $0x402db0,%edi
  400f07:	e8 d4 fc ff ff       	callq  400be0 <puts@plt>
  400f0c:	bf c4 2e 40 00       	mov    $0x402ec4,%edi
  400f11:	e8 ca fc ff ff       	callq  400be0 <puts@plt>
  400f16:	bf 00 00 00 00       	mov    $0x0,%edi
  400f1b:	e8 50 fe ff ff       	callq  400d70 <exit@plt>

0000000000400f20 <initialize_target>:
  400f20:	55                   	push   %rbp
  400f21:	53                   	push   %rbx
  400f22:	48 81 ec 08 21 00 00 	sub    $0x2108,%rsp
  400f29:	89 f5                	mov    %esi,%ebp
  400f2b:	89 3d a7 45 20 00    	mov    %edi,0x2045a7(%rip)        # 6054d8 <check_level>
  400f31:	8b 3d 11 42 20 00    	mov    0x204211(%rip),%edi        # 605148 <target_id>
  400f37:	e8 07 1d 00 00       	callq  402c43 <gencookie>
  400f3c:	89 05 a2 45 20 00    	mov    %eax,0x2045a2(%rip)        # 6054e4 <cookie>
  400f42:	89 c7                	mov    %eax,%edi
  400f44:	e8 fa 1c 00 00       	callq  402c43 <gencookie>
  400f49:	89 05 91 45 20 00    	mov    %eax,0x204591(%rip)        # 6054e0 <authkey>
  400f4f:	8b 05 f3 41 20 00    	mov    0x2041f3(%rip),%eax        # 605148 <target_id>
  400f55:	8d 78 01             	lea    0x1(%rax),%edi
  400f58:	e8 53 fc ff ff       	callq  400bb0 <srandom@plt>
  400f5d:	e8 6e fd ff ff       	callq  400cd0 <random@plt>
  400f62:	89 c7                	mov    %eax,%edi
  400f64:	e8 75 02 00 00       	callq  4011de <scramble>
  400f69:	89 c3                	mov    %eax,%ebx
  400f6b:	85 ed                	test   %ebp,%ebp
  400f6d:	74 18                	je     400f87 <initialize_target+0x67>
  400f6f:	bf 00 00 00 00       	mov    $0x0,%edi
  400f74:	e8 47 fd ff ff       	callq  400cc0 <time@plt>
  400f79:	89 c7                	mov    %eax,%edi
  400f7b:	e8 30 fc ff ff       	callq  400bb0 <srandom@plt>
  400f80:	e8 4b fd ff ff       	callq  400cd0 <random@plt>
  400f85:	eb 05                	jmp    400f8c <initialize_target+0x6c>
  400f87:	b8 00 00 00 00       	mov    $0x0,%eax
  400f8c:	01 c3                	add    %eax,%ebx
  400f8e:	0f b7 db             	movzwl %bx,%ebx
  400f91:	8d 04 dd 00 01 00 00 	lea    0x100(,%rbx,8),%eax
  400f98:	89 c0                	mov    %eax,%eax
  400f9a:	48 89 05 df 44 20 00 	mov    %rax,0x2044df(%rip)        # 605480 <buf_offset>
  400fa1:	c6 05 60 51 20 00 72 	movb   $0x72,0x205160(%rip)        # 606108 <target_prefix>
  400fa8:	83 3d d9 44 20 00 00 	cmpl   $0x0,0x2044d9(%rip)        # 605488 <notify>
  400faf:	74 60                	je     401011 <initialize_target+0xf1>
  400fb1:	83 3d 30 45 20 00 00 	cmpl   $0x0,0x204530(%rip)        # 6054e8 <is_checker>
  400fb8:	75 57                	jne    401011 <initialize_target+0xf1>
  400fba:	be 00 01 00 00       	mov    $0x100,%esi
  400fbf:	48 89 e7             	mov    %rsp,%rdi
  400fc2:	e8 89 fd ff ff       	callq  400d50 <gethostname@plt>
  400fc7:	85 c0                	test   %eax,%eax
  400fc9:	74 14                	je     400fdf <initialize_target+0xbf>
  400fcb:	bf e0 2d 40 00       	mov    $0x402de0,%edi
  400fd0:	e8 0b fc ff ff       	callq  400be0 <puts@plt>
  400fd5:	bf 08 00 00 00       	mov    $0x8,%edi
  400fda:	e8 91 fd ff ff       	callq  400d70 <exit@plt>
  400fdf:	48 8d bc 24 00 01 00 	lea    0x100(%rsp),%rdi
  400fe6:	00 
  400fe7:	e8 ee 19 00 00       	callq  4029da <init_driver>
  400fec:	85 c0                	test   %eax,%eax
  400fee:	79 21                	jns    401011 <initialize_target+0xf1>
  400ff0:	48 8d b4 24 00 01 00 	lea    0x100(%rsp),%rsi
  400ff7:	00 
  400ff8:	bf 18 2e 40 00       	mov    $0x402e18,%edi
  400ffd:	b8 00 00 00 00       	mov    $0x0,%eax
  401002:	e8 09 fc ff ff       	callq  400c10 <printf@plt>
  401007:	bf 08 00 00 00       	mov    $0x8,%edi
  40100c:	e8 5f fd ff ff       	callq  400d70 <exit@plt>
  401011:	48 81 c4 08 21 00 00 	add    $0x2108,%rsp
  401018:	5b                   	pop    %rbx
  401019:	5d                   	pop    %rbp
  40101a:	c3                   	retq   

000000000040101b <main>:
  40101b:	41 56                	push   %r14
  40101d:	41 55                	push   %r13
  40101f:	41 54                	push   %r12
  401021:	55                   	push   %rbp
  401022:	53                   	push   %rbx
  401023:	41 89 fc             	mov    %edi,%r12d
  401026:	48 89 f3             	mov    %rsi,%rbx
  401029:	be 01 1e 40 00       	mov    $0x401e01,%esi
  40102e:	bf 0b 00 00 00       	mov    $0xb,%edi
  401033:	e8 38 fc ff ff       	callq  400c70 <signal@plt>
  401038:	be b3 1d 40 00       	mov    $0x401db3,%esi
  40103d:	bf 07 00 00 00       	mov    $0x7,%edi
  401042:	e8 29 fc ff ff       	callq  400c70 <signal@plt>
  401047:	be 4f 1e 40 00       	mov    $0x401e4f,%esi
  40104c:	bf 04 00 00 00       	mov    $0x4,%edi
  401051:	e8 1a fc ff ff       	callq  400c70 <signal@plt>
  401056:	83 3d 8b 44 20 00 00 	cmpl   $0x0,0x20448b(%rip)        # 6054e8 <is_checker>
  40105d:	74 20                	je     40107f <main+0x64>
  40105f:	be 9d 1e 40 00       	mov    $0x401e9d,%esi
  401064:	bf 0e 00 00 00       	mov    $0xe,%edi
  401069:	e8 02 fc ff ff       	callq  400c70 <signal@plt>
  40106e:	bf 05 00 00 00       	mov    $0x5,%edi
  401073:	e8 b8 fb ff ff       	callq  400c30 <alarm@plt>
  401078:	bd e2 2e 40 00       	mov    $0x402ee2,%ebp
  40107d:	eb 05                	jmp    401084 <main+0x69>
  40107f:	bd dd 2e 40 00       	mov    $0x402edd,%ebp
  401084:	48 8b 05 15 44 20 00 	mov    0x204415(%rip),%rax        # 6054a0 <stdin@@GLIBC_2.2.5>
  40108b:	48 89 05 3e 44 20 00 	mov    %rax,0x20443e(%rip)        # 6054d0 <infile>
  401092:	41 bd 00 00 00 00    	mov    $0x0,%r13d
  401098:	41 be 00 00 00 00    	mov    $0x0,%r14d
  40109e:	e9 b9 00 00 00       	jmpq   40115c <main+0x141>
  4010a3:	83 e8 61             	sub    $0x61,%eax
  4010a6:	3c 10                	cmp    $0x10,%al
  4010a8:	0f 87 93 00 00 00    	ja     401141 <main+0x126>
  4010ae:	0f b6 c0             	movzbl %al,%eax
  4010b1:	ff 24 c5 28 2f 40 00 	jmpq   *0x402f28(,%rax,8)
  4010b8:	48 8b 3b             	mov    (%rbx),%rdi
  4010bb:	e8 e0 fd ff ff       	callq  400ea0 <usage>
  4010c0:	be ad 31 40 00       	mov    $0x4031ad,%esi
  4010c5:	48 8b 3d dc 43 20 00 	mov    0x2043dc(%rip),%rdi        # 6054a8 <optarg@@GLIBC_2.2.5>
  4010cc:	e8 4f fc ff ff       	callq  400d20 <fopen@plt>
  4010d1:	48 89 05 f8 43 20 00 	mov    %rax,0x2043f8(%rip)        # 6054d0 <infile>
  4010d8:	48 85 c0             	test   %rax,%rax
  4010db:	75 7f                	jne    40115c <main+0x141>
  4010dd:	48 8b 15 c4 43 20 00 	mov    0x2043c4(%rip),%rdx        # 6054a8 <optarg@@GLIBC_2.2.5>
  4010e4:	be ea 2e 40 00       	mov    $0x402eea,%esi
  4010e9:	48 8b 3d c0 43 20 00 	mov    0x2043c0(%rip),%rdi        # 6054b0 <stderr@@GLIBC_2.2.5>
  4010f0:	e8 9b fb ff ff       	callq  400c90 <fprintf@plt>
  4010f5:	b8 01 00 00 00       	mov    $0x1,%eax
  4010fa:	e9 d6 00 00 00       	jmpq   4011d5 <main+0x1ba>
  4010ff:	ba 10 00 00 00       	mov    $0x10,%edx
  401104:	be 00 00 00 00       	mov    $0x0,%esi
  401109:	48 8b 3d 98 43 20 00 	mov    0x204398(%rip),%rdi        # 6054a8 <optarg@@GLIBC_2.2.5>
  401110:	e8 2b fc ff ff       	callq  400d40 <strtoul@plt>
  401115:	41 89 c6             	mov    %eax,%r14d
  401118:	eb 42                	jmp    40115c <main+0x141>
  40111a:	ba 0a 00 00 00       	mov    $0xa,%edx
  40111f:	be 00 00 00 00       	mov    $0x0,%esi
  401124:	48 8b 3d 7d 43 20 00 	mov    0x20437d(%rip),%rdi        # 6054a8 <optarg@@GLIBC_2.2.5>
  40112b:	e8 70 fb ff ff       	callq  400ca0 <strtol@plt>
  401130:	41 89 c5             	mov    %eax,%r13d
  401133:	eb 27                	jmp    40115c <main+0x141>
  401135:	c7 05 49 43 20 00 00 	movl   $0x0,0x204349(%rip)        # 605488 <notify>
  40113c:	00 00 00 
  40113f:	eb 1b                	jmp    40115c <main+0x141>
  401141:	40 0f be f6          	movsbl %sil,%esi
  401145:	bf 07 2f 40 00       	mov    $0x402f07,%edi
  40114a:	b8 00 00 00 00       	mov    $0x0,%eax
  40114f:	e8 bc fa ff ff       	callq  400c10 <printf@plt>
  401154:	48 8b 3b             	mov    (%rbx),%rdi
  401157:	e8 44 fd ff ff       	callq  400ea0 <usage>
  40115c:	48 89 ea             	mov    %rbp,%rdx
  40115f:	48 89 de             	mov    %rbx,%rsi
  401162:	44 89 e7             	mov    %r12d,%edi
  401165:	e8 c6 fb ff ff       	callq  400d30 <getopt@plt>
  40116a:	89 c6                	mov    %eax,%esi
  40116c:	3c ff                	cmp    $0xff,%al
  40116e:	0f 85 2f ff ff ff    	jne    4010a3 <main+0x88>
  401174:	be 01 00 00 00       	mov    $0x1,%esi
  401179:	44 89 ef             	mov    %r13d,%edi
  40117c:	e8 9f fd ff ff       	callq  400f20 <initialize_target>
  401181:	83 3d 60 43 20 00 00 	cmpl   $0x0,0x204360(%rip)        # 6054e8 <is_checker>
  401188:	74 25                	je     4011af <main+0x194>
  40118a:	44 3b 35 4f 43 20 00 	cmp    0x20434f(%rip),%r14d        # 6054e0 <authkey>
  401191:	74 1c                	je     4011af <main+0x194>
  401193:	44 89 f6             	mov    %r14d,%esi
  401196:	bf 40 2e 40 00       	mov    $0x402e40,%edi
  40119b:	b8 00 00 00 00       	mov    $0x0,%eax
  4011a0:	e8 6b fa ff ff       	callq  400c10 <printf@plt>
  4011a5:	b8 00 00 00 00       	mov    $0x0,%eax
  4011aa:	e8 0c 09 00 00       	callq  401abb <check_fail>
  4011af:	8b 35 2f 43 20 00    	mov    0x20432f(%rip),%esi        # 6054e4 <cookie>
  4011b5:	bf 1a 2f 40 00       	mov    $0x402f1a,%edi
  4011ba:	b8 00 00 00 00       	mov    $0x0,%eax
  4011bf:	e8 4c fa ff ff       	callq  400c10 <printf@plt>
  4011c4:	48 8b 3d b5 42 20 00 	mov    0x2042b5(%rip),%rdi        # 605480 <buf_offset>
  4011cb:	e8 1b 0d 00 00       	callq  401eeb <launch>
  4011d0:	b8 00 00 00 00       	mov    $0x0,%eax
  4011d5:	5b                   	pop    %rbx
  4011d6:	5d                   	pop    %rbp
  4011d7:	41 5c                	pop    %r12
  4011d9:	41 5d                	pop    %r13
  4011db:	41 5e                	pop    %r14
  4011dd:	c3                   	retq   

00000000004011de <scramble>:
  4011de:	b8 00 00 00 00       	mov    $0x0,%eax
  4011e3:	eb 11                	jmp    4011f6 <scramble+0x18>
  4011e5:	69 c8 dc 58 00 00    	imul   $0x58dc,%eax,%ecx
  4011eb:	01 f9                	add    %edi,%ecx
  4011ed:	89 c2                	mov    %eax,%edx
  4011ef:	89 4c 94 d0          	mov    %ecx,-0x30(%rsp,%rdx,4)
  4011f3:	83 c0 01             	add    $0x1,%eax
  4011f6:	83 f8 09             	cmp    $0x9,%eax
  4011f9:	76 ea                	jbe    4011e5 <scramble+0x7>
  4011fb:	8b 44 24 f0          	mov    -0x10(%rsp),%eax
  4011ff:	69 c0 39 3a 00 00    	imul   $0x3a39,%eax,%eax
  401205:	89 44 24 f0          	mov    %eax,-0x10(%rsp)
  401209:	8b 44 24 e4          	mov    -0x1c(%rsp),%eax
  40120d:	69 c0 95 d1 00 00    	imul   $0xd195,%eax,%eax
  401213:	89 44 24 e4          	mov    %eax,-0x1c(%rsp)
  401217:	8b 44 24 e4          	mov    -0x1c(%rsp),%eax
  40121b:	69 c0 88 99 00 00    	imul   $0x9988,%eax,%eax
  401221:	89 44 24 e4          	mov    %eax,-0x1c(%rsp)
  401225:	8b 44 24 e8          	mov    -0x18(%rsp),%eax
  401229:	69 c0 21 6d 00 00    	imul   $0x6d21,%eax,%eax
  40122f:	89 44 24 e8          	mov    %eax,-0x18(%rsp)
  401233:	8b 44 24 ec          	mov    -0x14(%rsp),%eax
  401237:	69 c0 b1 cf 00 00    	imul   $0xcfb1,%eax,%eax
  40123d:	89 44 24 ec          	mov    %eax,-0x14(%rsp)
  401241:	8b 44 24 ec          	mov    -0x14(%rsp),%eax
  401245:	69 c0 a1 eb 00 00    	imul   $0xeba1,%eax,%eax
  40124b:	89 44 24 ec          	mov    %eax,-0x14(%rsp)
  40124f:	8b 44 24 d0          	mov    -0x30(%rsp),%eax
  401253:	69 c0 08 7c 00 00    	imul   $0x7c08,%eax,%eax
  401259:	89 44 24 d0          	mov    %eax,-0x30(%rsp)
  40125d:	8b 44 24 e8          	mov    -0x18(%rsp),%eax
  401261:	69 c0 97 05 00 00    	imul   $0x597,%eax,%eax
  401267:	89 44 24 e8          	mov    %eax,-0x18(%rsp)
  40126b:	8b 44 24 e4          	mov    -0x1c(%rsp),%eax
  40126f:	69 c0 18 94 00 00    	imul   $0x9418,%eax,%eax
  401275:	89 44 24 e4          	mov    %eax,-0x1c(%rsp)
  401279:	8b 44 24 d8          	mov    -0x28(%rsp),%eax
  40127d:	69 c0 02 7b 00 00    	imul   $0x7b02,%eax,%eax
  401283:	89 44 24 d8          	mov    %eax,-0x28(%rsp)
  401287:	8b 44 24 d8          	mov    -0x28(%rsp),%eax
  40128b:	69 c0 d1 dc 00 00    	imul   $0xdcd1,%eax,%eax
  401291:	89 44 24 d8          	mov    %eax,-0x28(%rsp)
  401295:	8b 44 24 e8          	mov    -0x18(%rsp),%eax
  401299:	69 c0 4e f7 00 00    	imul   $0xf74e,%eax,%eax
  40129f:	89 44 24 e8          	mov    %eax,-0x18(%rsp)
  4012a3:	8b 44 24 e0          	mov    -0x20(%rsp),%eax
  4012a7:	69 c0 e7 65 00 00    	imul   $0x65e7,%eax,%eax
  4012ad:	89 44 24 e0          	mov    %eax,-0x20(%rsp)
  4012b1:	8b 44 24 f4          	mov    -0xc(%rsp),%eax
  4012b5:	69 c0 8f bb 00 00    	imul   $0xbb8f,%eax,%eax
  4012bb:	89 44 24 f4          	mov    %eax,-0xc(%rsp)
  4012bf:	8b 44 24 e0          	mov    -0x20(%rsp),%eax
  4012c3:	69 c0 08 b0 00 00    	imul   $0xb008,%eax,%eax
  4012c9:	89 44 24 e0          	mov    %eax,-0x20(%rsp)
  4012cd:	8b 44 24 f4          	mov    -0xc(%rsp),%eax
  4012d1:	69 c0 30 5d 00 00    	imul   $0x5d30,%eax,%eax
  4012d7:	89 44 24 f4          	mov    %eax,-0xc(%rsp)
  4012db:	8b 44 24 e4          	mov    -0x1c(%rsp),%eax
  4012df:	69 c0 dc 19 00 00    	imul   $0x19dc,%eax,%eax
  4012e5:	89 44 24 e4          	mov    %eax,-0x1c(%rsp)
  4012e9:	8b 44 24 f0          	mov    -0x10(%rsp),%eax
  4012ed:	69 c0 89 97 00 00    	imul   $0x9789,%eax,%eax
  4012f3:	89 44 24 f0          	mov    %eax,-0x10(%rsp)
  4012f7:	8b 44 24 e8          	mov    -0x18(%rsp),%eax
  4012fb:	69 c0 9c a4 00 00    	imul   $0xa49c,%eax,%eax
  401301:	89 44 24 e8          	mov    %eax,-0x18(%rsp)
  401305:	8b 44 24 d4          	mov    -0x2c(%rsp),%eax
  401309:	69 c0 06 6e 00 00    	imul   $0x6e06,%eax,%eax
  40130f:	89 44 24 d4          	mov    %eax,-0x2c(%rsp)
  401313:	8b 44 24 d8          	mov    -0x28(%rsp),%eax
  401317:	69 c0 37 ae 00 00    	imul   $0xae37,%eax,%eax
  40131d:	89 44 24 d8          	mov    %eax,-0x28(%rsp)
  401321:	8b 44 24 ec          	mov    -0x14(%rsp),%eax
  401325:	69 c0 6c 7c 00 00    	imul   $0x7c6c,%eax,%eax
  40132b:	89 44 24 ec          	mov    %eax,-0x14(%rsp)
  40132f:	8b 44 24 e0          	mov    -0x20(%rsp),%eax
  401333:	69 c0 34 92 00 00    	imul   $0x9234,%eax,%eax
  401339:	89 44 24 e0          	mov    %eax,-0x20(%rsp)
  40133d:	8b 44 24 d8          	mov    -0x28(%rsp),%eax
  401341:	69 c0 d5 d9 00 00    	imul   $0xd9d5,%eax,%eax
  401347:	89 44 24 d8          	mov    %eax,-0x28(%rsp)
  40134b:	8b 44 24 dc          	mov    -0x24(%rsp),%eax
  40134f:	69 c0 59 c0 00 00    	imul   $0xc059,%eax,%eax
  401355:	89 44 24 dc          	mov    %eax,-0x24(%rsp)
  401359:	8b 44 24 e0          	mov    -0x20(%rsp),%eax
  40135d:	69 c0 30 fc 00 00    	imul   $0xfc30,%eax,%eax
  401363:	89 44 24 e0          	mov    %eax,-0x20(%rsp)
  401367:	8b 44 24 d0          	mov    -0x30(%rsp),%eax
  40136b:	69 c0 d6 3a 00 00    	imul   $0x3ad6,%eax,%eax
  401371:	89 44 24 d0          	mov    %eax,-0x30(%rsp)
  401375:	8b 44 24 f4          	mov    -0xc(%rsp),%eax
  401379:	69 c0 0c 69 00 00    	imul   $0x690c,%eax,%eax
  40137f:	89 44 24 f4          	mov    %eax,-0xc(%rsp)
  401383:	8b 44 24 e4          	mov    -0x1c(%rsp),%eax
  401387:	69 c0 0a ec 00 00    	imul   $0xec0a,%eax,%eax
  40138d:	89 44 24 e4          	mov    %eax,-0x1c(%rsp)
  401391:	8b 44 24 f0          	mov    -0x10(%rsp),%eax
  401395:	69 c0 10 a5 00 00    	imul   $0xa510,%eax,%eax
  40139b:	89 44 24 f0          	mov    %eax,-0x10(%rsp)
  40139f:	8b 44 24 f0          	mov    -0x10(%rsp),%eax
  4013a3:	69 c0 23 43 00 00    	imul   $0x4323,%eax,%eax
  4013a9:	89 44 24 f0          	mov    %eax,-0x10(%rsp)
  4013ad:	8b 44 24 e4          	mov    -0x1c(%rsp),%eax
  4013b1:	69 c0 53 86 00 00    	imul   $0x8653,%eax,%eax
  4013b7:	89 44 24 e4          	mov    %eax,-0x1c(%rsp)
  4013bb:	8b 44 24 e8          	mov    -0x18(%rsp),%eax
  4013bf:	69 c0 05 31 00 00    	imul   $0x3105,%eax,%eax
  4013c5:	89 44 24 e8          	mov    %eax,-0x18(%rsp)
  4013c9:	8b 44 24 ec          	mov    -0x14(%rsp),%eax
  4013cd:	69 c0 63 10 00 00    	imul   $0x1063,%eax,%eax
  4013d3:	89 44 24 ec          	mov    %eax,-0x14(%rsp)
  4013d7:	8b 44 24 d0          	mov    -0x30(%rsp),%eax
  4013db:	69 c0 86 22 00 00    	imul   $0x2286,%eax,%eax
  4013e1:	89 44 24 d0          	mov    %eax,-0x30(%rsp)
  4013e5:	8b 44 24 f0          	mov    -0x10(%rsp),%eax
  4013e9:	69 c0 ee 49 00 00    	imul   $0x49ee,%eax,%eax
  4013ef:	89 44 24 f0          	mov    %eax,-0x10(%rsp)
  4013f3:	8b 44 24 d4          	mov    -0x2c(%rsp),%eax
  4013f7:	69 c0 12 d8 00 00    	imul   $0xd812,%eax,%eax
  4013fd:	89 44 24 d4          	mov    %eax,-0x2c(%rsp)
  401401:	8b 44 24 f0          	mov    -0x10(%rsp),%eax
  401405:	69 c0 fd fa 00 00    	imul   $0xfafd,%eax,%eax
  40140b:	89 44 24 f0          	mov    %eax,-0x10(%rsp)
  40140f:	8b 44 24 dc          	mov    -0x24(%rsp),%eax
  401413:	69 c0 5f 48 00 00    	imul   $0x485f,%eax,%eax
  401419:	89 44 24 dc          	mov    %eax,-0x24(%rsp)
  40141d:	8b 44 24 e8          	mov    -0x18(%rsp),%eax
  401421:	69 c0 92 90 00 00    	imul   $0x9092,%eax,%eax
  401427:	89 44 24 e8          	mov    %eax,-0x18(%rsp)
  40142b:	8b 44 24 f0          	mov    -0x10(%rsp),%eax
  40142f:	69 c0 aa 29 00 00    	imul   $0x29aa,%eax,%eax
  401435:	89 44 24 f0          	mov    %eax,-0x10(%rsp)
  401439:	8b 44 24 e0          	mov    -0x20(%rsp),%eax
  40143d:	69 c0 e2 a5 00 00    	imul   $0xa5e2,%eax,%eax
  401443:	89 44 24 e0          	mov    %eax,-0x20(%rsp)
  401447:	8b 44 24 d8          	mov    -0x28(%rsp),%eax
  40144b:	69 c0 40 80 00 00    	imul   $0x8040,%eax,%eax
  401451:	89 44 24 d8          	mov    %eax,-0x28(%rsp)
  401455:	8b 44 24 e8          	mov    -0x18(%rsp),%eax
  401459:	69 c0 3d 05 00 00    	imul   $0x53d,%eax,%eax
  40145f:	89 44 24 e8          	mov    %eax,-0x18(%rsp)
  401463:	8b 44 24 d8          	mov    -0x28(%rsp),%eax
  401467:	69 c0 8a 33 00 00    	imul   $0x338a,%eax,%eax
  40146d:	89 44 24 d8          	mov    %eax,-0x28(%rsp)
  401471:	8b 44 24 d4          	mov    -0x2c(%rsp),%eax
  401475:	69 c0 5c 08 00 00    	imul   $0x85c,%eax,%eax
  40147b:	89 44 24 d4          	mov    %eax,-0x2c(%rsp)
  40147f:	8b 44 24 e4          	mov    -0x1c(%rsp),%eax
  401483:	69 c0 8e ac 00 00    	imul   $0xac8e,%eax,%eax
  401489:	89 44 24 e4          	mov    %eax,-0x1c(%rsp)
  40148d:	8b 44 24 f0          	mov    -0x10(%rsp),%eax
  401491:	69 c0 ad d3 00 00    	imul   $0xd3ad,%eax,%eax
  401497:	89 44 24 f0          	mov    %eax,-0x10(%rsp)
  40149b:	8b 44 24 e0          	mov    -0x20(%rsp),%eax
  40149f:	69 c0 8c ac 00 00    	imul   $0xac8c,%eax,%eax
  4014a5:	89 44 24 e0          	mov    %eax,-0x20(%rsp)
  4014a9:	8b 44 24 e8          	mov    -0x18(%rsp),%eax
  4014ad:	69 c0 35 b3 00 00    	imul   $0xb335,%eax,%eax
  4014b3:	89 44 24 e8          	mov    %eax,-0x18(%rsp)
  4014b7:	8b 44 24 f0          	mov    -0x10(%rsp),%eax
  4014bb:	69 c0 7a 62 00 00    	imul   $0x627a,%eax,%eax
  4014c1:	89 44 24 f0          	mov    %eax,-0x10(%rsp)
  4014c5:	8b 44 24 d0          	mov    -0x30(%rsp),%eax
  4014c9:	69 c0 d0 9f 00 00    	imul   $0x9fd0,%eax,%eax
  4014cf:	89 44 24 d0          	mov    %eax,-0x30(%rsp)
  4014d3:	8b 44 24 d8          	mov    -0x28(%rsp),%eax
  4014d7:	69 c0 7f c3 00 00    	imul   $0xc37f,%eax,%eax
  4014dd:	89 44 24 d8          	mov    %eax,-0x28(%rsp)
  4014e1:	8b 44 24 e8          	mov    -0x18(%rsp),%eax
  4014e5:	69 c0 d2 a4 00 00    	imul   $0xa4d2,%eax,%eax
  4014eb:	89 44 24 e8          	mov    %eax,-0x18(%rsp)
  4014ef:	8b 44 24 e0          	mov    -0x20(%rsp),%eax
  4014f3:	69 c0 a1 6f 00 00    	imul   $0x6fa1,%eax,%eax
  4014f9:	89 44 24 e0          	mov    %eax,-0x20(%rsp)
  4014fd:	8b 44 24 dc          	mov    -0x24(%rsp),%eax
  401501:	69 c0 96 14 00 00    	imul   $0x1496,%eax,%eax
  401507:	89 44 24 dc          	mov    %eax,-0x24(%rsp)
  40150b:	8b 44 24 d8          	mov    -0x28(%rsp),%eax
  40150f:	69 c0 26 c2 00 00    	imul   $0xc226,%eax,%eax
  401515:	89 44 24 d8          	mov    %eax,-0x28(%rsp)
  401519:	8b 44 24 e0          	mov    -0x20(%rsp),%eax
  40151d:	69 c0 cc fd 00 00    	imul   $0xfdcc,%eax,%eax
  401523:	89 44 24 e0          	mov    %eax,-0x20(%rsp)
  401527:	8b 44 24 dc          	mov    -0x24(%rsp),%eax
  40152b:	69 c0 66 c9 00 00    	imul   $0xc966,%eax,%eax
  401531:	89 44 24 dc          	mov    %eax,-0x24(%rsp)
  401535:	8b 44 24 e8          	mov    -0x18(%rsp),%eax
  401539:	69 c0 b0 ae 00 00    	imul   $0xaeb0,%eax,%eax
  40153f:	89 44 24 e8          	mov    %eax,-0x18(%rsp)
  401543:	8b 44 24 f0          	mov    -0x10(%rsp),%eax
  401547:	69 c0 57 ad 00 00    	imul   $0xad57,%eax,%eax
  40154d:	89 44 24 f0          	mov    %eax,-0x10(%rsp)
  401551:	8b 44 24 d0          	mov    -0x30(%rsp),%eax
  401555:	69 c0 9e 73 00 00    	imul   $0x739e,%eax,%eax
  40155b:	89 44 24 d0          	mov    %eax,-0x30(%rsp)
  40155f:	8b 44 24 f4          	mov    -0xc(%rsp),%eax
  401563:	69 c0 bc 45 00 00    	imul   $0x45bc,%eax,%eax
  401569:	89 44 24 f4          	mov    %eax,-0xc(%rsp)
  40156d:	8b 44 24 f0          	mov    -0x10(%rsp),%eax
  401571:	69 c0 7a 37 00 00    	imul   $0x377a,%eax,%eax
  401577:	89 44 24 f0          	mov    %eax,-0x10(%rsp)
  40157b:	8b 44 24 e4          	mov    -0x1c(%rsp),%eax
  40157f:	69 c0 5b 2b 00 00    	imul   $0x2b5b,%eax,%eax
  401585:	89 44 24 e4          	mov    %eax,-0x1c(%rsp)
  401589:	8b 44 24 d8          	mov    -0x28(%rsp),%eax
  40158d:	69 c0 5a c1 00 00    	imul   $0xc15a,%eax,%eax
  401593:	89 44 24 d8          	mov    %eax,-0x28(%rsp)
  401597:	8b 44 24 d4          	mov    -0x2c(%rsp),%eax
  40159b:	69 c0 d3 e7 00 00    	imul   $0xe7d3,%eax,%eax
  4015a1:	89 44 24 d4          	mov    %eax,-0x2c(%rsp)
  4015a5:	8b 44 24 e0          	mov    -0x20(%rsp),%eax
  4015a9:	69 c0 62 c8 00 00    	imul   $0xc862,%eax,%eax
  4015af:	89 44 24 e0          	mov    %eax,-0x20(%rsp)
  4015b3:	8b 44 24 ec          	mov    -0x14(%rsp),%eax
  4015b7:	69 c0 f9 fb 00 00    	imul   $0xfbf9,%eax,%eax
  4015bd:	89 44 24 ec          	mov    %eax,-0x14(%rsp)
  4015c1:	8b 44 24 d8          	mov    -0x28(%rsp),%eax
  4015c5:	69 c0 30 b7 00 00    	imul   $0xb730,%eax,%eax
  4015cb:	89 44 24 d8          	mov    %eax,-0x28(%rsp)
  4015cf:	8b 44 24 e0          	mov    -0x20(%rsp),%eax
  4015d3:	69 c0 99 a2 00 00    	imul   $0xa299,%eax,%eax
  4015d9:	89 44 24 e0          	mov    %eax,-0x20(%rsp)
  4015dd:	8b 44 24 e8          	mov    -0x18(%rsp),%eax
  4015e1:	69 c0 e5 04 00 00    	imul   $0x4e5,%eax,%eax
  4015e7:	89 44 24 e8          	mov    %eax,-0x18(%rsp)
  4015eb:	8b 44 24 e4          	mov    -0x1c(%rsp),%eax
  4015ef:	69 c0 3e 86 00 00    	imul   $0x863e,%eax,%eax
  4015f5:	89 44 24 e4          	mov    %eax,-0x1c(%rsp)
  4015f9:	8b 44 24 e4          	mov    -0x1c(%rsp),%eax
  4015fd:	69 c0 26 a7 00 00    	imul   $0xa726,%eax,%eax
  401603:	89 44 24 e4          	mov    %eax,-0x1c(%rsp)
  401607:	8b 44 24 dc          	mov    -0x24(%rsp),%eax
  40160b:	69 c0 bb 05 00 00    	imul   $0x5bb,%eax,%eax
  401611:	89 44 24 dc          	mov    %eax,-0x24(%rsp)
  401615:	8b 44 24 f0          	mov    -0x10(%rsp),%eax
  401619:	69 c0 95 4c 00 00    	imul   $0x4c95,%eax,%eax
  40161f:	89 44 24 f0          	mov    %eax,-0x10(%rsp)
  401623:	8b 44 24 dc          	mov    -0x24(%rsp),%eax
  401627:	69 c0 e3 0c 00 00    	imul   $0xce3,%eax,%eax
  40162d:	89 44 24 dc          	mov    %eax,-0x24(%rsp)
  401631:	8b 44 24 ec          	mov    -0x14(%rsp),%eax
  401635:	69 c0 f8 0c 00 00    	imul   $0xcf8,%eax,%eax
  40163b:	89 44 24 ec          	mov    %eax,-0x14(%rsp)
  40163f:	8b 44 24 f0          	mov    -0x10(%rsp),%eax
  401643:	69 c0 7e 07 00 00    	imul   $0x77e,%eax,%eax
  401649:	89 44 24 f0          	mov    %eax,-0x10(%rsp)
  40164d:	8b 44 24 d0          	mov    -0x30(%rsp),%eax
  401651:	69 c0 e7 44 00 00    	imul   $0x44e7,%eax,%eax
  401657:	89 44 24 d0          	mov    %eax,-0x30(%rsp)
  40165b:	8b 44 24 d8          	mov    -0x28(%rsp),%eax
  40165f:	69 c0 22 2f 00 00    	imul   $0x2f22,%eax,%eax
  401665:	89 44 24 d8          	mov    %eax,-0x28(%rsp)
  401669:	8b 44 24 f4          	mov    -0xc(%rsp),%eax
  40166d:	69 c0 b0 c0 00 00    	imul   $0xc0b0,%eax,%eax
  401673:	89 44 24 f4          	mov    %eax,-0xc(%rsp)
  401677:	8b 44 24 e8          	mov    -0x18(%rsp),%eax
  40167b:	69 c0 6d 67 00 00    	imul   $0x676d,%eax,%eax
  401681:	89 44 24 e8          	mov    %eax,-0x18(%rsp)
  401685:	8b 44 24 d0          	mov    -0x30(%rsp),%eax
  401689:	69 c0 48 c2 00 00    	imul   $0xc248,%eax,%eax
  40168f:	89 44 24 d0          	mov    %eax,-0x30(%rsp)
  401693:	8b 44 24 e8          	mov    -0x18(%rsp),%eax
  401697:	69 c0 47 f6 00 00    	imul   $0xf647,%eax,%eax
  40169d:	89 44 24 e8          	mov    %eax,-0x18(%rsp)
  4016a1:	8b 44 24 ec          	mov    -0x14(%rsp),%eax
  4016a5:	69 c0 00 cf 00 00    	imul   $0xcf00,%eax,%eax
  4016ab:	89 44 24 ec          	mov    %eax,-0x14(%rsp)
  4016af:	8b 44 24 f4          	mov    -0xc(%rsp),%eax
  4016b3:	69 c0 3f 45 00 00    	imul   $0x453f,%eax,%eax
  4016b9:	89 44 24 f4          	mov    %eax,-0xc(%rsp)
  4016bd:	8b 44 24 d4          	mov    -0x2c(%rsp),%eax
  4016c1:	69 c0 a1 fd 00 00    	imul   $0xfda1,%eax,%eax
  4016c7:	89 44 24 d4          	mov    %eax,-0x2c(%rsp)
  4016cb:	8b 44 24 e4          	mov    -0x1c(%rsp),%eax
  4016cf:	69 c0 97 d6 00 00    	imul   $0xd697,%eax,%eax
  4016d5:	89 44 24 e4          	mov    %eax,-0x1c(%rsp)
  4016d9:	8b 44 24 f0          	mov    -0x10(%rsp),%eax
  4016dd:	69 c0 22 1b 00 00    	imul   $0x1b22,%eax,%eax
  4016e3:	89 44 24 f0          	mov    %eax,-0x10(%rsp)
  4016e7:	8b 44 24 d0          	mov    -0x30(%rsp),%eax
  4016eb:	69 c0 9e fa 00 00    	imul   $0xfa9e,%eax,%eax
  4016f1:	89 44 24 d0          	mov    %eax,-0x30(%rsp)
  4016f5:	8b 44 24 e0          	mov    -0x20(%rsp),%eax
  4016f9:	69 c0 64 8f 00 00    	imul   $0x8f64,%eax,%eax
  4016ff:	89 44 24 e0          	mov    %eax,-0x20(%rsp)
  401703:	8b 44 24 ec          	mov    -0x14(%rsp),%eax
  401707:	69 c0 eb 27 00 00    	imul   $0x27eb,%eax,%eax
  40170d:	89 44 24 ec          	mov    %eax,-0x14(%rsp)
  401711:	8b 44 24 d8          	mov    -0x28(%rsp),%eax
  401715:	69 c0 21 5a 00 00    	imul   $0x5a21,%eax,%eax
  40171b:	89 44 24 d8          	mov    %eax,-0x28(%rsp)
  40171f:	8b 44 24 d4          	mov    -0x2c(%rsp),%eax
  401723:	69 c0 cf e0 00 00    	imul   $0xe0cf,%eax,%eax
  401729:	89 44 24 d4          	mov    %eax,-0x2c(%rsp)
  40172d:	8b 44 24 d4          	mov    -0x2c(%rsp),%eax
  401731:	69 c0 44 62 00 00    	imul   $0x6244,%eax,%eax
  401737:	89 44 24 d4          	mov    %eax,-0x2c(%rsp)
  40173b:	8b 44 24 e8          	mov    -0x18(%rsp),%eax
  40173f:	69 c0 4b a5 00 00    	imul   $0xa54b,%eax,%eax
  401745:	89 44 24 e8          	mov    %eax,-0x18(%rsp)
  401749:	8b 44 24 d0          	mov    -0x30(%rsp),%eax
  40174d:	69 c0 e7 26 00 00    	imul   $0x26e7,%eax,%eax
  401753:	89 44 24 d0          	mov    %eax,-0x30(%rsp)
  401757:	8b 44 24 f4          	mov    -0xc(%rsp),%eax
  40175b:	69 c0 06 ac 00 00    	imul   $0xac06,%eax,%eax
  401761:	89 44 24 f4          	mov    %eax,-0xc(%rsp)
  401765:	8b 44 24 f0          	mov    -0x10(%rsp),%eax
  401769:	69 c0 1e 70 00 00    	imul   $0x701e,%eax,%eax
  40176f:	89 44 24 f0          	mov    %eax,-0x10(%rsp)
  401773:	ba 00 00 00 00       	mov    $0x0,%edx
  401778:	b8 00 00 00 00       	mov    $0x0,%eax
  40177d:	eb 0b                	jmp    40178a <scramble+0x5ac>
  40177f:	89 d1                	mov    %edx,%ecx
  401781:	8b 4c 8c d0          	mov    -0x30(%rsp,%rcx,4),%ecx
  401785:	01 c8                	add    %ecx,%eax
  401787:	83 c2 01             	add    $0x1,%edx
  40178a:	83 fa 09             	cmp    $0x9,%edx
  40178d:	76 f0                	jbe    40177f <scramble+0x5a1>
  40178f:	f3 c3                	repz retq 

0000000000401791 <getbuf>:
  401791:	48 83 ec 28          	sub    $0x28,%rsp
  401795:	48 89 e7             	mov    %rsp,%rdi
  401798:	e8 4d 03 00 00       	callq  401aea <Gets>
  40179d:	b8 01 00 00 00       	mov    $0x1,%eax
  4017a2:	48 83 c4 28          	add    $0x28,%rsp
  4017a6:	c3                   	retq   

00000000004017a7 <touch1>:
  4017a7:	48 83 ec 08          	sub    $0x8,%rsp
  4017ab:	c7 05 27 3d 20 00 01 	movl   $0x1,0x203d27(%rip)        # 6054dc <vlevel>
  4017b2:	00 00 00 
  4017b5:	bf 05 30 40 00       	mov    $0x403005,%edi
  4017ba:	e8 21 f4 ff ff       	callq  400be0 <puts@plt>
  4017bf:	bf 01 00 00 00       	mov    $0x1,%edi
  4017c4:	e8 10 05 00 00       	callq  401cd9 <validate>
  4017c9:	bf 00 00 00 00       	mov    $0x0,%edi
  4017ce:	e8 9d f5 ff ff       	callq  400d70 <exit@plt>

00000000004017d3 <touch2>:
  4017d3:	48 83 ec 08          	sub    $0x8,%rsp
  4017d7:	89 fe                	mov    %edi,%esi
  4017d9:	c7 05 f9 3c 20 00 02 	movl   $0x2,0x203cf9(%rip)        # 6054dc <vlevel>
  4017e0:	00 00 00 
  4017e3:	3b 3d fb 3c 20 00    	cmp    0x203cfb(%rip),%edi        # 6054e4 <cookie>
  4017e9:	75 1b                	jne    401806 <touch2+0x33>
  4017eb:	bf 28 30 40 00       	mov    $0x403028,%edi
  4017f0:	b8 00 00 00 00       	mov    $0x0,%eax
  4017f5:	e8 16 f4 ff ff       	callq  400c10 <printf@plt>
  4017fa:	bf 02 00 00 00       	mov    $0x2,%edi
  4017ff:	e8 d5 04 00 00       	callq  401cd9 <validate>
  401804:	eb 19                	jmp    40181f <touch2+0x4c>
  401806:	bf 50 30 40 00       	mov    $0x403050,%edi
  40180b:	b8 00 00 00 00       	mov    $0x0,%eax
  401810:	e8 fb f3 ff ff       	callq  400c10 <printf@plt>
  401815:	bf 02 00 00 00       	mov    $0x2,%edi
  40181a:	e8 6c 05 00 00       	callq  401d8b <fail>
  40181f:	bf 00 00 00 00       	mov    $0x0,%edi
  401824:	e8 47 f5 ff ff       	callq  400d70 <exit@plt>

0000000000401829 <hexmatch>:
  401829:	41 54                	push   %r12
  40182b:	55                   	push   %rbp
  40182c:	53                   	push   %rbx
  40182d:	48 83 ec 70          	sub    $0x70,%rsp
  401831:	41 89 fc             	mov    %edi,%r12d
  401834:	48 89 f5             	mov    %rsi,%rbp
  401837:	e8 94 f4 ff ff       	callq  400cd0 <random@plt>
  40183c:	48 89 c1             	mov    %rax,%rcx
  40183f:	48 ba 0b d7 a3 70 3d 	movabs $0xa3d70a3d70a3d70b,%rdx
  401846:	0a d7 a3 
  401849:	48 f7 ea             	imul   %rdx
  40184c:	48 8d 04 0a          	lea    (%rdx,%rcx,1),%rax
  401850:	48 c1 f8 06          	sar    $0x6,%rax
  401854:	48 89 ce             	mov    %rcx,%rsi
  401857:	48 c1 fe 3f          	sar    $0x3f,%rsi
  40185b:	48 29 f0             	sub    %rsi,%rax
  40185e:	48 8d 04 80          	lea    (%rax,%rax,4),%rax
  401862:	48 8d 04 80          	lea    (%rax,%rax,4),%rax
  401866:	48 c1 e0 02          	shl    $0x2,%rax
  40186a:	48 29 c1             	sub    %rax,%rcx
  40186d:	48 8d 1c 0c          	lea    (%rsp,%rcx,1),%rbx
  401871:	44 89 e2             	mov    %r12d,%edx
  401874:	be 22 30 40 00       	mov    $0x403022,%esi
  401879:	48 89 df             	mov    %rbx,%rdi
  40187c:	b8 00 00 00 00       	mov    $0x0,%eax
  401881:	e8 da f4 ff ff       	callq  400d60 <sprintf@plt>
  401886:	ba 09 00 00 00       	mov    $0x9,%edx
  40188b:	48 89 de             	mov    %rbx,%rsi
  40188e:	48 89 ef             	mov    %rbp,%rdi
  401891:	e8 2a f3 ff ff       	callq  400bc0 <strncmp@plt>
  401896:	85 c0                	test   %eax,%eax
  401898:	0f 94 c0             	sete   %al
  40189b:	0f b6 c0             	movzbl %al,%eax
  40189e:	48 83 c4 70          	add    $0x70,%rsp
  4018a2:	5b                   	pop    %rbx
  4018a3:	5d                   	pop    %rbp
  4018a4:	41 5c                	pop    %r12
  4018a6:	c3                   	retq   

00000000004018a7 <touch3>:
  4018a7:	53                   	push   %rbx
  4018a8:	48 89 fb             	mov    %rdi,%rbx
  4018ab:	c7 05 27 3c 20 00 03 	movl   $0x3,0x203c27(%rip)        # 6054dc <vlevel>
  4018b2:	00 00 00 
  4018b5:	48 89 fe             	mov    %rdi,%rsi
  4018b8:	8b 3d 26 3c 20 00    	mov    0x203c26(%rip),%edi        # 6054e4 <cookie>
  4018be:	e8 66 ff ff ff       	callq  401829 <hexmatch>
  4018c3:	85 c0                	test   %eax,%eax
  4018c5:	74 1e                	je     4018e5 <touch3+0x3e>
  4018c7:	48 89 de             	mov    %rbx,%rsi
  4018ca:	bf 78 30 40 00       	mov    $0x403078,%edi
  4018cf:	b8 00 00 00 00       	mov    $0x0,%eax
  4018d4:	e8 37 f3 ff ff       	callq  400c10 <printf@plt>
  4018d9:	bf 03 00 00 00       	mov    $0x3,%edi
  4018de:	e8 f6 03 00 00       	callq  401cd9 <validate>
  4018e3:	eb 1c                	jmp    401901 <touch3+0x5a>
  4018e5:	48 89 de             	mov    %rbx,%rsi
  4018e8:	bf a0 30 40 00       	mov    $0x4030a0,%edi
  4018ed:	b8 00 00 00 00       	mov    $0x0,%eax
  4018f2:	e8 19 f3 ff ff       	callq  400c10 <printf@plt>
  4018f7:	bf 03 00 00 00       	mov    $0x3,%edi
  4018fc:	e8 8a 04 00 00       	callq  401d8b <fail>
  401901:	bf 00 00 00 00       	mov    $0x0,%edi
  401906:	e8 65 f4 ff ff       	callq  400d70 <exit@plt>

000000000040190b <test>:
  40190b:	48 83 ec 08          	sub    $0x8,%rsp
  40190f:	b8 00 00 00 00       	mov    $0x0,%eax
  401914:	e8 78 fe ff ff       	callq  401791 <getbuf>
  401919:	89 c6                	mov    %eax,%esi
  40191b:	bf c8 30 40 00       	mov    $0x4030c8,%edi
  401920:	b8 00 00 00 00       	mov    $0x0,%eax
  401925:	e8 e6 f2 ff ff       	callq  400c10 <printf@plt>
  40192a:	48 83 c4 08          	add    $0x8,%rsp
  40192e:	c3                   	retq   

000000000040192f <start_farm>:
  40192f:	b8 01 00 00 00       	mov    $0x1,%eax
  401934:	c3                   	retq   

0000000000401935 <addval_219>:
  401935:	8d 87 48 89 c7 c3    	lea    -0x3c3876b8(%rdi),%eax
  40193b:	c3                   	retq   

000000000040193c <addval_162>:
  40193c:	8d 87 40 89 c7 c3    	lea    -0x3c3876c0(%rdi),%eax
  401942:	c3                   	retq   

0000000000401943 <getval_145>:
  401943:	b8 95 24 58 c3       	mov    $0xc3582495,%eax
  401948:	c3                   	retq   

0000000000401949 <setval_159>:
  401949:	c7 07 48 89 c7 c2    	movl   $0xc2c78948,(%rdi)
  40194f:	c3                   	retq   

0000000000401950 <addval_349>:
  401950:	8d 87 48 89 c7 c3    	lea    -0x3c3876b8(%rdi),%eax
  401956:	c3                   	retq   

0000000000401957 <getval_499>:
  401957:	b8 58 da 58 90       	mov    $0x9058da58,%eax
  40195c:	c3                   	retq   

000000000040195d <setval_128>:
  40195d:	c7 07 48 90 90 c3    	movl   $0xc3909048,(%rdi)
  401963:	c3                   	retq   

0000000000401964 <setval_324>:
  401964:	c7 07 58 92 90 c3    	movl   $0xc3909258,(%rdi)
  40196a:	c3                   	retq   

000000000040196b <mid_farm>:
  40196b:	b8 01 00 00 00       	mov    $0x1,%eax
  401970:	c3                   	retq   

0000000000401971 <add_xy>:
  401971:	48 8d 04 37          	lea    (%rdi,%rsi,1),%rax
  401975:	c3                   	retq   

0000000000401976 <addval_469>:
  401976:	8d 87 89 d6 28 db    	lea    -0x24d72977(%rdi),%eax
  40197c:	c3                   	retq   

000000000040197d <addval_112>:
  40197d:	8d 87 81 ca 90 c3    	lea    -0x3c6f357f(%rdi),%eax
  401983:	c3                   	retq   

0000000000401984 <getval_107>:
  401984:	b8 89 c1 60 d2       	mov    $0xd260c189,%eax
  401989:	c3                   	retq   

000000000040198a <setval_271>:
  40198a:	c7 07 c4 58 89 e0    	movl   $0xe08958c4,(%rdi)
  401990:	c3                   	retq   

0000000000401991 <addval_104>:
  401991:	8d 87 89 ca 94 db    	lea    -0x246b3577(%rdi),%eax
  401997:	c3                   	retq   

0000000000401998 <setval_321>:
  401998:	c7 07 48 89 e0 94    	movl   $0x94e08948,(%rdi)
  40199e:	c3                   	retq   

000000000040199f <getval_211>:
  40199f:	b8 60 09 d6 90       	mov    $0x90d60960,%eax
  4019a4:	c3                   	retq   

00000000004019a5 <addval_449>:
  4019a5:	8d 87 48 89 e0 c3    	lea    -0x3c1f76b8(%rdi),%eax
  4019ab:	c3                   	retq   

00000000004019ac <setval_118>:
  4019ac:	c7 07 89 c1 78 db    	movl   $0xdb78c189,(%rdi)
  4019b2:	c3                   	retq   

00000000004019b3 <getval_109>:
  4019b3:	b8 18 89 d6 90       	mov    $0x90d68918,%eax
  4019b8:	c3                   	retq   

00000000004019b9 <addval_377>:
  4019b9:	8d 87 89 d6 94 c9    	lea    -0x366b2977(%rdi),%eax
  4019bf:	c3                   	retq   

00000000004019c0 <getval_400>:
  4019c0:	b8 38 1b 89 c1       	mov    $0xc1891b38,%eax
  4019c5:	c3                   	retq   

00000000004019c6 <getval_422>:
  4019c6:	b8 89 ca 08 d2       	mov    $0xd208ca89,%eax
  4019cb:	c3                   	retq   

00000000004019cc <setval_329>:
  4019cc:	c7 07 48 8b e0 90    	movl   $0x90e08b48,(%rdi)
  4019d2:	c3                   	retq   

00000000004019d3 <getval_108>:
  4019d3:	b8 89 d6 90 c2       	mov    $0xc290d689,%eax
  4019d8:	c3                   	retq   

00000000004019d9 <setval_355>:
  4019d9:	c7 07 49 89 e0 c3    	movl   $0xc3e08949,(%rdi)
  4019df:	c3                   	retq   

00000000004019e0 <addval_326>:
  4019e0:	8d 87 c9 ca 84 c0    	lea    -0x3f7b3537(%rdi),%eax
  4019e6:	c3                   	retq   

00000000004019e7 <getval_278>:
  4019e7:	b8 89 c1 30 c9       	mov    $0xc930c189,%eax
  4019ec:	c3                   	retq   

00000000004019ed <addval_280>:
  4019ed:	8d 87 89 ca 90 90    	lea    -0x6f6f3577(%rdi),%eax
  4019f3:	c3                   	retq   

00000000004019f4 <setval_304>:
  4019f4:	c7 07 48 89 e0 c3    	movl   $0xc3e08948,(%rdi)
  4019fa:	c3                   	retq   

00000000004019fb <setval_319>:
  4019fb:	c7 07 a9 ca 90 c3    	movl   $0xc390caa9,(%rdi)
  401a01:	c3                   	retq   

0000000000401a02 <addval_239>:
  401a02:	8d 87 88 d6 84 d2    	lea    -0x2d7b2978(%rdi),%eax
  401a08:	c3                   	retq   

0000000000401a09 <setval_482>:
  401a09:	c7 07 89 d6 c1 90    	movl   $0x90c1d689,(%rdi)
  401a0f:	c3                   	retq   

0000000000401a10 <getval_336>:
  401a10:	b8 8d c1 84 c0       	mov    $0xc084c18d,%eax
  401a15:	c3                   	retq   

0000000000401a16 <setval_370>:
  401a16:	c7 07 c9 ca 20 d2    	movl   $0xd220cac9,(%rdi)
  401a1c:	c3                   	retq   

0000000000401a1d <addval_334>:
  401a1d:	8d 87 78 81 c1 90    	lea    -0x6f3e7e88(%rdi),%eax
  401a23:	c3                   	retq   

0000000000401a24 <getval_424>:
  401a24:	b8 4a 89 e0 c3       	mov    $0xc3e0894a,%eax
  401a29:	c3                   	retq   

0000000000401a2a <getval_467>:
  401a2a:	b8 99 ca 20 c9       	mov    $0xc920ca99,%eax
  401a2f:	c3                   	retq   

0000000000401a30 <getval_427>:
  401a30:	b8 63 0c 89 d6       	mov    $0xd6890c63,%eax
  401a35:	c3                   	retq   

0000000000401a36 <getval_466>:
  401a36:	b8 48 89 e0 c1       	mov    $0xc1e08948,%eax
  401a3b:	c3                   	retq   

0000000000401a3c <setval_423>:
  401a3c:	c7 07 89 c1 20 db    	movl   $0xdb20c189,(%rdi)
  401a42:	c3                   	retq   

0000000000401a43 <addval_135>:
  401a43:	8d 87 81 c1 90 90    	lea    -0x6f6f3e7f(%rdi),%eax
  401a49:	c3                   	retq   

0000000000401a4a <end_farm>:
  401a4a:	b8 01 00 00 00       	mov    $0x1,%eax
  401a4f:	c3                   	retq   

0000000000401a50 <save_char>:
  401a50:	8b 05 ae 46 20 00    	mov    0x2046ae(%rip),%eax        # 606104 <gets_cnt>
  401a56:	3d ff 03 00 00       	cmp    $0x3ff,%eax
  401a5b:	7f 49                	jg     401aa6 <save_char+0x56>
  401a5d:	8d 14 40             	lea    (%rax,%rax,2),%edx
  401a60:	89 f9                	mov    %edi,%ecx
  401a62:	c0 e9 04             	shr    $0x4,%cl
  401a65:	83 e1 0f             	and    $0xf,%ecx
  401a68:	0f b6 b1 f0 33 40 00 	movzbl 0x4033f0(%rcx),%esi
  401a6f:	48 63 ca             	movslq %edx,%rcx
  401a72:	40 88 b1 00 55 60 00 	mov    %sil,0x605500(%rcx)
  401a79:	8d 4a 01             	lea    0x1(%rdx),%ecx
  401a7c:	83 e7 0f             	and    $0xf,%edi
  401a7f:	0f b6 b7 f0 33 40 00 	movzbl 0x4033f0(%rdi),%esi
  401a86:	48 63 c9             	movslq %ecx,%rcx
  401a89:	40 88 b1 00 55 60 00 	mov    %sil,0x605500(%rcx)
  401a90:	83 c2 02             	add    $0x2,%edx
  401a93:	48 63 d2             	movslq %edx,%rdx
  401a96:	c6 82 00 55 60 00 20 	movb   $0x20,0x605500(%rdx)
  401a9d:	83 c0 01             	add    $0x1,%eax
  401aa0:	89 05 5e 46 20 00    	mov    %eax,0x20465e(%rip)        # 606104 <gets_cnt>
  401aa6:	f3 c3                	repz retq 

0000000000401aa8 <save_term>:
  401aa8:	8b 05 56 46 20 00    	mov    0x204656(%rip),%eax        # 606104 <gets_cnt>
  401aae:	8d 04 40             	lea    (%rax,%rax,2),%eax
  401ab1:	48 98                	cltq   
  401ab3:	c6 80 00 55 60 00 00 	movb   $0x0,0x605500(%rax)
  401aba:	c3                   	retq   

0000000000401abb <check_fail>:
  401abb:	48 83 ec 08          	sub    $0x8,%rsp
  401abf:	0f be 35 42 46 20 00 	movsbl 0x204642(%rip),%esi        # 606108 <target_prefix>
  401ac6:	b9 00 55 60 00       	mov    $0x605500,%ecx
  401acb:	8b 15 07 3a 20 00    	mov    0x203a07(%rip),%edx        # 6054d8 <check_level>
  401ad1:	bf eb 30 40 00       	mov    $0x4030eb,%edi
  401ad6:	b8 00 00 00 00       	mov    $0x0,%eax
  401adb:	e8 30 f1 ff ff       	callq  400c10 <printf@plt>
  401ae0:	bf 01 00 00 00       	mov    $0x1,%edi
  401ae5:	e8 86 f2 ff ff       	callq  400d70 <exit@plt>

0000000000401aea <Gets>:
  401aea:	41 54                	push   %r12
  401aec:	55                   	push   %rbp
  401aed:	53                   	push   %rbx
  401aee:	49 89 fc             	mov    %rdi,%r12
  401af1:	c7 05 09 46 20 00 00 	movl   $0x0,0x204609(%rip)        # 606104 <gets_cnt>
  401af8:	00 00 00 
  401afb:	48 89 fb             	mov    %rdi,%rbx
  401afe:	eb 11                	jmp    401b11 <Gets+0x27>
  401b00:	48 8d 6b 01          	lea    0x1(%rbx),%rbp
  401b04:	88 03                	mov    %al,(%rbx)
  401b06:	0f b6 f8             	movzbl %al,%edi
  401b09:	e8 42 ff ff ff       	callq  401a50 <save_char>
  401b0e:	48 89 eb             	mov    %rbp,%rbx
  401b11:	48 8b 3d b8 39 20 00 	mov    0x2039b8(%rip),%rdi        # 6054d0 <infile>
  401b18:	e8 c3 f1 ff ff       	callq  400ce0 <_IO_getc@plt>
  401b1d:	83 f8 ff             	cmp    $0xffffffff,%eax
  401b20:	74 05                	je     401b27 <Gets+0x3d>
  401b22:	83 f8 0a             	cmp    $0xa,%eax
  401b25:	75 d9                	jne    401b00 <Gets+0x16>
  401b27:	c6 03 00             	movb   $0x0,(%rbx)
  401b2a:	b8 00 00 00 00       	mov    $0x0,%eax
  401b2f:	e8 74 ff ff ff       	callq  401aa8 <save_term>
  401b34:	4c 89 e0             	mov    %r12,%rax
  401b37:	5b                   	pop    %rbx
  401b38:	5d                   	pop    %rbp
  401b39:	41 5c                	pop    %r12
  401b3b:	c3                   	retq   

0000000000401b3c <notify_server>:
  401b3c:	83 3d a5 39 20 00 00 	cmpl   $0x0,0x2039a5(%rip)        # 6054e8 <is_checker>
  401b43:	0f 85 8e 01 00 00    	jne    401cd7 <notify_server+0x19b>
  401b49:	53                   	push   %rbx
  401b4a:	48 81 ec 10 40 00 00 	sub    $0x4010,%rsp
  401b51:	89 fb                	mov    %edi,%ebx
  401b53:	8b 05 ab 45 20 00    	mov    0x2045ab(%rip),%eax        # 606104 <gets_cnt>
  401b59:	83 c0 64             	add    $0x64,%eax
  401b5c:	3d 00 20 00 00       	cmp    $0x2000,%eax
  401b61:	7e 19                	jle    401b7c <notify_server+0x40>
  401b63:	bf 20 32 40 00       	mov    $0x403220,%edi
  401b68:	b8 00 00 00 00       	mov    $0x0,%eax
  401b6d:	e8 9e f0 ff ff       	callq  400c10 <printf@plt>
  401b72:	bf 01 00 00 00       	mov    $0x1,%edi
  401b77:	e8 f4 f1 ff ff       	callq  400d70 <exit@plt>
  401b7c:	44 0f be 0d 84 45 20 	movsbl 0x204584(%rip),%r9d        # 606108 <target_prefix>
  401b83:	00 
  401b84:	83 3d fd 38 20 00 00 	cmpl   $0x0,0x2038fd(%rip)        # 605488 <notify>
  401b8b:	74 09                	je     401b96 <notify_server+0x5a>
  401b8d:	44 8b 05 4c 39 20 00 	mov    0x20394c(%rip),%r8d        # 6054e0 <authkey>
  401b94:	eb 06                	jmp    401b9c <notify_server+0x60>
  401b96:	41 b8 ff ff ff ff    	mov    $0xffffffff,%r8d
  401b9c:	85 db                	test   %ebx,%ebx
  401b9e:	74 07                	je     401ba7 <notify_server+0x6b>
  401ba0:	b9 01 31 40 00       	mov    $0x403101,%ecx
  401ba5:	eb 05                	jmp    401bac <notify_server+0x70>
  401ba7:	b9 06 31 40 00       	mov    $0x403106,%ecx
  401bac:	48 c7 44 24 08 00 55 	movq   $0x605500,0x8(%rsp)
  401bb3:	60 00 
  401bb5:	89 34 24             	mov    %esi,(%rsp)
  401bb8:	8b 15 8a 35 20 00    	mov    0x20358a(%rip),%edx        # 605148 <target_id>
  401bbe:	be 0b 31 40 00       	mov    $0x40310b,%esi
  401bc3:	48 8d bc 24 10 20 00 	lea    0x2010(%rsp),%rdi
  401bca:	00 
  401bcb:	b8 00 00 00 00       	mov    $0x0,%eax
  401bd0:	e8 8b f1 ff ff       	callq  400d60 <sprintf@plt>
  401bd5:	83 3d ac 38 20 00 00 	cmpl   $0x0,0x2038ac(%rip)        # 605488 <notify>
  401bdc:	74 78                	je     401c56 <notify_server+0x11a>
  401bde:	85 db                	test   %ebx,%ebx
  401be0:	74 68                	je     401c4a <notify_server+0x10e>
  401be2:	4c 8d 4c 24 10       	lea    0x10(%rsp),%r9
  401be7:	41 b8 00 00 00 00    	mov    $0x0,%r8d
  401bed:	48 8d 8c 24 10 20 00 	lea    0x2010(%rsp),%rcx
  401bf4:	00 
  401bf5:	48 8b 15 54 35 20 00 	mov    0x203554(%rip),%rdx        # 605150 <lab>
  401bfc:	48 8b 35 55 35 20 00 	mov    0x203555(%rip),%rsi        # 605158 <course>
  401c03:	48 8b 3d 36 35 20 00 	mov    0x203536(%rip),%rdi        # 605140 <user_id>
  401c0a:	e8 94 0f 00 00       	callq  402ba3 <driver_post>
  401c0f:	85 c0                	test   %eax,%eax
  401c11:	79 1e                	jns    401c31 <notify_server+0xf5>
  401c13:	48 8d 74 24 10       	lea    0x10(%rsp),%rsi
  401c18:	bf 27 31 40 00       	mov    $0x403127,%edi
  401c1d:	b8 00 00 00 00       	mov    $0x0,%eax
  401c22:	e8 e9 ef ff ff       	callq  400c10 <printf@plt>
  401c27:	bf 01 00 00 00       	mov    $0x1,%edi
  401c2c:	e8 3f f1 ff ff       	callq  400d70 <exit@plt>
  401c31:	bf 50 32 40 00       	mov    $0x403250,%edi
  401c36:	e8 a5 ef ff ff       	callq  400be0 <puts@plt>
  401c3b:	bf 33 31 40 00       	mov    $0x403133,%edi
  401c40:	e8 9b ef ff ff       	callq  400be0 <puts@plt>
  401c45:	e9 85 00 00 00       	jmpq   401ccf <notify_server+0x193>
  401c4a:	bf 3d 31 40 00       	mov    $0x40313d,%edi
  401c4f:	e8 8c ef ff ff       	callq  400be0 <puts@plt>
  401c54:	eb 79                	jmp    401ccf <notify_server+0x193>
  401c56:	85 db                	test   %ebx,%ebx
  401c58:	74 08                	je     401c62 <notify_server+0x126>
  401c5a:	be 01 31 40 00       	mov    $0x403101,%esi
  401c5f:	90                   	nop
  401c60:	eb 05                	jmp    401c67 <notify_server+0x12b>
  401c62:	be 06 31 40 00       	mov    $0x403106,%esi
  401c67:	bf 88 32 40 00       	mov    $0x403288,%edi
  401c6c:	b8 00 00 00 00       	mov    $0x0,%eax
  401c71:	e8 9a ef ff ff       	callq  400c10 <printf@plt>
  401c76:	48 8b 35 c3 34 20 00 	mov    0x2034c3(%rip),%rsi        # 605140 <user_id>
  401c7d:	bf 44 31 40 00       	mov    $0x403144,%edi
  401c82:	b8 00 00 00 00       	mov    $0x0,%eax
  401c87:	e8 84 ef ff ff       	callq  400c10 <printf@plt>
  401c8c:	48 8b 35 c5 34 20 00 	mov    0x2034c5(%rip),%rsi        # 605158 <course>
  401c93:	bf 51 31 40 00       	mov    $0x403151,%edi
  401c98:	b8 00 00 00 00       	mov    $0x0,%eax
  401c9d:	e8 6e ef ff ff       	callq  400c10 <printf@plt>
  401ca2:	48 8b 35 a7 34 20 00 	mov    0x2034a7(%rip),%rsi        # 605150 <lab>
  401ca9:	bf 5d 31 40 00       	mov    $0x40315d,%edi
  401cae:	b8 00 00 00 00       	mov    $0x0,%eax
  401cb3:	e8 58 ef ff ff       	callq  400c10 <printf@plt>
  401cb8:	48 8d b4 24 10 20 00 	lea    0x2010(%rsp),%rsi
  401cbf:	00 
  401cc0:	bf 66 31 40 00       	mov    $0x403166,%edi
  401cc5:	b8 00 00 00 00       	mov    $0x0,%eax
  401cca:	e8 41 ef ff ff       	callq  400c10 <printf@plt>
  401ccf:	48 81 c4 10 40 00 00 	add    $0x4010,%rsp
  401cd6:	5b                   	pop    %rbx
  401cd7:	f3 c3                	repz retq 

0000000000401cd9 <validate>:
  401cd9:	53                   	push   %rbx
  401cda:	89 fb                	mov    %edi,%ebx
  401cdc:	83 3d 05 38 20 00 00 	cmpl   $0x0,0x203805(%rip)        # 6054e8 <is_checker>
  401ce3:	74 60                	je     401d45 <validate+0x6c>
  401ce5:	39 3d f1 37 20 00    	cmp    %edi,0x2037f1(%rip)        # 6054dc <vlevel>
  401ceb:	74 14                	je     401d01 <validate+0x28>
  401ced:	bf 72 31 40 00       	mov    $0x403172,%edi
  401cf2:	e8 e9 ee ff ff       	callq  400be0 <puts@plt>
  401cf7:	b8 00 00 00 00       	mov    $0x0,%eax
  401cfc:	e8 ba fd ff ff       	callq  401abb <check_fail>
  401d01:	8b 35 d1 37 20 00    	mov    0x2037d1(%rip),%esi        # 6054d8 <check_level>
  401d07:	39 fe                	cmp    %edi,%esi
  401d09:	74 1b                	je     401d26 <validate+0x4d>
  401d0b:	89 fa                	mov    %edi,%edx
  401d0d:	bf b0 32 40 00       	mov    $0x4032b0,%edi
  401d12:	b8 00 00 00 00       	mov    $0x0,%eax
  401d17:	e8 f4 ee ff ff       	callq  400c10 <printf@plt>
  401d1c:	b8 00 00 00 00       	mov    $0x0,%eax
  401d21:	e8 95 fd ff ff       	callq  401abb <check_fail>
  401d26:	0f be 35 db 43 20 00 	movsbl 0x2043db(%rip),%esi        # 606108 <target_prefix>
  401d2d:	b9 00 55 60 00       	mov    $0x605500,%ecx
  401d32:	89 fa                	mov    %edi,%edx
  401d34:	bf 90 31 40 00       	mov    $0x403190,%edi
  401d39:	b8 00 00 00 00       	mov    $0x0,%eax
  401d3e:	e8 cd ee ff ff       	callq  400c10 <printf@plt>
  401d43:	eb 44                	jmp    401d89 <validate+0xb0>
  401d45:	39 3d 91 37 20 00    	cmp    %edi,0x203791(%rip)        # 6054dc <vlevel>
  401d4b:	74 18                	je     401d65 <validate+0x8c>
  401d4d:	bf 72 31 40 00       	mov    $0x403172,%edi
  401d52:	e8 89 ee ff ff       	callq  400be0 <puts@plt>
  401d57:	89 de                	mov    %ebx,%esi
  401d59:	bf 00 00 00 00       	mov    $0x0,%edi
  401d5e:	e8 d9 fd ff ff       	callq  401b3c <notify_server>
  401d63:	eb 24                	jmp    401d89 <validate+0xb0>
  401d65:	0f be 15 9c 43 20 00 	movsbl 0x20439c(%rip),%edx        # 606108 <target_prefix>
  401d6c:	89 fe                	mov    %edi,%esi
  401d6e:	bf d8 32 40 00       	mov    $0x4032d8,%edi
  401d73:	b8 00 00 00 00       	mov    $0x0,%eax
  401d78:	e8 93 ee ff ff       	callq  400c10 <printf@plt>
  401d7d:	89 de                	mov    %ebx,%esi
  401d7f:	bf 01 00 00 00       	mov    $0x1,%edi
  401d84:	e8 b3 fd ff ff       	callq  401b3c <notify_server>
  401d89:	5b                   	pop    %rbx
  401d8a:	c3                   	retq   

0000000000401d8b <fail>:
  401d8b:	48 83 ec 08          	sub    $0x8,%rsp
  401d8f:	83 3d 52 37 20 00 00 	cmpl   $0x0,0x203752(%rip)        # 6054e8 <is_checker>
  401d96:	74 0a                	je     401da2 <fail+0x17>
  401d98:	b8 00 00 00 00       	mov    $0x0,%eax
  401d9d:	e8 19 fd ff ff       	callq  401abb <check_fail>
  401da2:	89 fe                	mov    %edi,%esi
  401da4:	bf 00 00 00 00       	mov    $0x0,%edi
  401da9:	e8 8e fd ff ff       	callq  401b3c <notify_server>
  401dae:	48 83 c4 08          	add    $0x8,%rsp
  401db2:	c3                   	retq   

0000000000401db3 <bushandler>:
  401db3:	48 83 ec 08          	sub    $0x8,%rsp
  401db7:	83 3d 2a 37 20 00 00 	cmpl   $0x0,0x20372a(%rip)        # 6054e8 <is_checker>
  401dbe:	74 14                	je     401dd4 <bushandler+0x21>
  401dc0:	bf a5 31 40 00       	mov    $0x4031a5,%edi
  401dc5:	e8 16 ee ff ff       	callq  400be0 <puts@plt>
  401dca:	b8 00 00 00 00       	mov    $0x0,%eax
  401dcf:	e8 e7 fc ff ff       	callq  401abb <check_fail>
  401dd4:	bf 10 33 40 00       	mov    $0x403310,%edi
  401dd9:	e8 02 ee ff ff       	callq  400be0 <puts@plt>
  401dde:	bf af 31 40 00       	mov    $0x4031af,%edi
  401de3:	e8 f8 ed ff ff       	callq  400be0 <puts@plt>
  401de8:	be 00 00 00 00       	mov    $0x0,%esi
  401ded:	bf 00 00 00 00       	mov    $0x0,%edi
  401df2:	e8 45 fd ff ff       	callq  401b3c <notify_server>
  401df7:	bf 01 00 00 00       	mov    $0x1,%edi
  401dfc:	e8 6f ef ff ff       	callq  400d70 <exit@plt>

0000000000401e01 <seghandler>:
  401e01:	48 83 ec 08          	sub    $0x8,%rsp
  401e05:	83 3d dc 36 20 00 00 	cmpl   $0x0,0x2036dc(%rip)        # 6054e8 <is_checker>
  401e0c:	74 14                	je     401e22 <seghandler+0x21>
  401e0e:	bf c5 31 40 00       	mov    $0x4031c5,%edi
  401e13:	e8 c8 ed ff ff       	callq  400be0 <puts@plt>
  401e18:	b8 00 00 00 00       	mov    $0x0,%eax
  401e1d:	e8 99 fc ff ff       	callq  401abb <check_fail>
  401e22:	bf 30 33 40 00       	mov    $0x403330,%edi
  401e27:	e8 b4 ed ff ff       	callq  400be0 <puts@plt>
  401e2c:	bf af 31 40 00       	mov    $0x4031af,%edi
  401e31:	e8 aa ed ff ff       	callq  400be0 <puts@plt>
  401e36:	be 00 00 00 00       	mov    $0x0,%esi
  401e3b:	bf 00 00 00 00       	mov    $0x0,%edi
  401e40:	e8 f7 fc ff ff       	callq  401b3c <notify_server>
  401e45:	bf 01 00 00 00       	mov    $0x1,%edi
  401e4a:	e8 21 ef ff ff       	callq  400d70 <exit@plt>

0000000000401e4f <illegalhandler>:
  401e4f:	48 83 ec 08          	sub    $0x8,%rsp
  401e53:	83 3d 8e 36 20 00 00 	cmpl   $0x0,0x20368e(%rip)        # 6054e8 <is_checker>
  401e5a:	74 14                	je     401e70 <illegalhandler+0x21>
  401e5c:	bf d8 31 40 00       	mov    $0x4031d8,%edi
  401e61:	e8 7a ed ff ff       	callq  400be0 <puts@plt>
  401e66:	b8 00 00 00 00       	mov    $0x0,%eax
  401e6b:	e8 4b fc ff ff       	callq  401abb <check_fail>
  401e70:	bf 58 33 40 00       	mov    $0x403358,%edi
  401e75:	e8 66 ed ff ff       	callq  400be0 <puts@plt>
  401e7a:	bf af 31 40 00       	mov    $0x4031af,%edi
  401e7f:	e8 5c ed ff ff       	callq  400be0 <puts@plt>
  401e84:	be 00 00 00 00       	mov    $0x0,%esi
  401e89:	bf 00 00 00 00       	mov    $0x0,%edi
  401e8e:	e8 a9 fc ff ff       	callq  401b3c <notify_server>
  401e93:	bf 01 00 00 00       	mov    $0x1,%edi
  401e98:	e8 d3 ee ff ff       	callq  400d70 <exit@plt>

0000000000401e9d <sigalrmhandler>:
  401e9d:	48 83 ec 08          	sub    $0x8,%rsp
  401ea1:	83 3d 40 36 20 00 00 	cmpl   $0x0,0x203640(%rip)        # 6054e8 <is_checker>
  401ea8:	74 14                	je     401ebe <sigalrmhandler+0x21>
  401eaa:	bf ec 31 40 00       	mov    $0x4031ec,%edi
  401eaf:	e8 2c ed ff ff       	callq  400be0 <puts@plt>
  401eb4:	b8 00 00 00 00       	mov    $0x0,%eax
  401eb9:	e8 fd fb ff ff       	callq  401abb <check_fail>
  401ebe:	be 05 00 00 00       	mov    $0x5,%esi
  401ec3:	bf 88 33 40 00       	mov    $0x403388,%edi
  401ec8:	b8 00 00 00 00       	mov    $0x0,%eax
  401ecd:	e8 3e ed ff ff       	callq  400c10 <printf@plt>
  401ed2:	be 00 00 00 00       	mov    $0x0,%esi
  401ed7:	bf 00 00 00 00       	mov    $0x0,%edi
  401edc:	e8 5b fc ff ff       	callq  401b3c <notify_server>
  401ee1:	bf 01 00 00 00       	mov    $0x1,%edi
  401ee6:	e8 85 ee ff ff       	callq  400d70 <exit@plt>

0000000000401eeb <launch>:
  401eeb:	55                   	push   %rbp
  401eec:	48 89 e5             	mov    %rsp,%rbp
  401eef:	48 89 fa             	mov    %rdi,%rdx
  401ef2:	48 8d 47 1e          	lea    0x1e(%rdi),%rax
  401ef6:	48 83 e0 f0          	and    $0xfffffffffffffff0,%rax
  401efa:	48 29 c4             	sub    %rax,%rsp
  401efd:	48 8d 7c 24 0f       	lea    0xf(%rsp),%rdi
  401f02:	48 83 e7 f0          	and    $0xfffffffffffffff0,%rdi
  401f06:	be f4 00 00 00       	mov    $0xf4,%esi
  401f0b:	e8 10 ed ff ff       	callq  400c20 <memset@plt>
  401f10:	48 8b 05 89 35 20 00 	mov    0x203589(%rip),%rax        # 6054a0 <stdin@@GLIBC_2.2.5>
  401f17:	48 39 05 b2 35 20 00 	cmp    %rax,0x2035b2(%rip)        # 6054d0 <infile>
  401f1e:	75 0f                	jne    401f2f <launch+0x44>
  401f20:	bf f4 31 40 00       	mov    $0x4031f4,%edi
  401f25:	b8 00 00 00 00       	mov    $0x0,%eax
  401f2a:	e8 e1 ec ff ff       	callq  400c10 <printf@plt>
  401f2f:	c7 05 a3 35 20 00 00 	movl   $0x0,0x2035a3(%rip)        # 6054dc <vlevel>
  401f36:	00 00 00 
  401f39:	b8 00 00 00 00       	mov    $0x0,%eax
  401f3e:	e8 c8 f9 ff ff       	callq  40190b <test>
  401f43:	83 3d 9e 35 20 00 00 	cmpl   $0x0,0x20359e(%rip)        # 6054e8 <is_checker>
  401f4a:	74 14                	je     401f60 <launch+0x75>
  401f4c:	bf 01 32 40 00       	mov    $0x403201,%edi
  401f51:	e8 8a ec ff ff       	callq  400be0 <puts@plt>
  401f56:	b8 00 00 00 00       	mov    $0x0,%eax
  401f5b:	e8 5b fb ff ff       	callq  401abb <check_fail>
  401f60:	bf 0c 32 40 00       	mov    $0x40320c,%edi
  401f65:	e8 76 ec ff ff       	callq  400be0 <puts@plt>
  401f6a:	c9                   	leaveq 
  401f6b:	c3                   	retq   

0000000000401f6c <stable_launch>:
  401f6c:	53                   	push   %rbx
  401f6d:	48 89 3d 54 35 20 00 	mov    %rdi,0x203554(%rip)        # 6054c8 <global_offset>
  401f74:	41 b9 00 00 00 00    	mov    $0x0,%r9d
  401f7a:	41 b8 00 00 00 00    	mov    $0x0,%r8d
  401f80:	b9 32 01 00 00       	mov    $0x132,%ecx
  401f85:	ba 07 00 00 00       	mov    $0x7,%edx
  401f8a:	be 00 00 10 00       	mov    $0x100000,%esi
  401f8f:	bf 00 60 58 55       	mov    $0x55586000,%edi
  401f94:	e8 67 ec ff ff       	callq  400c00 <mmap@plt>
  401f99:	48 89 c3             	mov    %rax,%rbx
  401f9c:	48 3d 00 60 58 55    	cmp    $0x55586000,%rax
  401fa2:	74 32                	je     401fd6 <stable_launch+0x6a>
  401fa4:	be 00 00 10 00       	mov    $0x100000,%esi
  401fa9:	48 89 c7             	mov    %rax,%rdi
  401fac:	e8 4f ed ff ff       	callq  400d00 <munmap@plt>
  401fb1:	ba 00 60 58 55       	mov    $0x55586000,%edx
  401fb6:	be c0 33 40 00       	mov    $0x4033c0,%esi
  401fbb:	48 8b 3d ee 34 20 00 	mov    0x2034ee(%rip),%rdi        # 6054b0 <stderr@@GLIBC_2.2.5>
  401fc2:	b8 00 00 00 00       	mov    $0x0,%eax
  401fc7:	e8 c4 ec ff ff       	callq  400c90 <fprintf@plt>
  401fcc:	bf 01 00 00 00       	mov    $0x1,%edi
  401fd1:	e8 9a ed ff ff       	callq  400d70 <exit@plt>
  401fd6:	48 8d 90 f8 ff 0f 00 	lea    0xffff8(%rax),%rdx
  401fdd:	48 89 15 2c 41 20 00 	mov    %rdx,0x20412c(%rip)        # 606110 <stack_top>
  401fe4:	48 89 e0             	mov    %rsp,%rax
  401fe7:	48 89 d4             	mov    %rdx,%rsp
  401fea:	48 89 c2             	mov    %rax,%rdx
  401fed:	48 89 15 cc 34 20 00 	mov    %rdx,0x2034cc(%rip)        # 6054c0 <global_save_stack>
  401ff4:	48 8b 3d cd 34 20 00 	mov    0x2034cd(%rip),%rdi        # 6054c8 <global_offset>
  401ffb:	e8 eb fe ff ff       	callq  401eeb <launch>
  402000:	48 8b 05 b9 34 20 00 	mov    0x2034b9(%rip),%rax        # 6054c0 <global_save_stack>
  402007:	48 89 c4             	mov    %rax,%rsp
  40200a:	be 00 00 10 00       	mov    $0x100000,%esi
  40200f:	48 89 df             	mov    %rbx,%rdi
  402012:	e8 e9 ec ff ff       	callq  400d00 <munmap@plt>
  402017:	5b                   	pop    %rbx
  402018:	c3                   	retq   
  402019:	0f 1f 80 00 00 00 00 	nopl   0x0(%rax)

0000000000402020 <rio_readinitb>:
  402020:	89 37                	mov    %esi,(%rdi)
  402022:	c7 47 04 00 00 00 00 	movl   $0x0,0x4(%rdi)
  402029:	48 8d 47 10          	lea    0x10(%rdi),%rax
  40202d:	48 89 47 08          	mov    %rax,0x8(%rdi)
  402031:	c3                   	retq   

0000000000402032 <sigalrm_handler>:
  402032:	48 83 ec 08          	sub    $0x8,%rsp
  402036:	ba 00 00 00 00       	mov    $0x0,%edx
  40203b:	be 00 34 40 00       	mov    $0x403400,%esi
  402040:	48 8b 3d 69 34 20 00 	mov    0x203469(%rip),%rdi        # 6054b0 <stderr@@GLIBC_2.2.5>
  402047:	b8 00 00 00 00       	mov    $0x0,%eax
  40204c:	e8 3f ec ff ff       	callq  400c90 <fprintf@plt>
  402051:	bf 01 00 00 00       	mov    $0x1,%edi
  402056:	e8 15 ed ff ff       	callq  400d70 <exit@plt>

000000000040205b <urlencode>:
  40205b:	41 54                	push   %r12
  40205d:	55                   	push   %rbp
  40205e:	53                   	push   %rbx
  40205f:	48 83 ec 10          	sub    $0x10,%rsp
  402063:	48 89 fb             	mov    %rdi,%rbx
  402066:	48 89 f5             	mov    %rsi,%rbp
  402069:	b8 00 00 00 00       	mov    $0x0,%eax
  40206e:	48 c7 c1 ff ff ff ff 	mov    $0xffffffffffffffff,%rcx
  402075:	f2 ae                	repnz scas %es:(%rdi),%al
  402077:	48 f7 d1             	not    %rcx
  40207a:	8d 41 ff             	lea    -0x1(%rcx),%eax
  40207d:	e9 93 00 00 00       	jmpq   402115 <urlencode+0xba>
  402082:	0f b6 13             	movzbl (%rbx),%edx
  402085:	80 fa 2a             	cmp    $0x2a,%dl
  402088:	0f 94 c1             	sete   %cl
  40208b:	80 fa 2d             	cmp    $0x2d,%dl
  40208e:	0f 94 c0             	sete   %al
  402091:	08 c1                	or     %al,%cl
  402093:	75 1f                	jne    4020b4 <urlencode+0x59>
  402095:	80 fa 2e             	cmp    $0x2e,%dl
  402098:	74 1a                	je     4020b4 <urlencode+0x59>
  40209a:	80 fa 5f             	cmp    $0x5f,%dl
  40209d:	74 15                	je     4020b4 <urlencode+0x59>
  40209f:	8d 42 d0             	lea    -0x30(%rdx),%eax
  4020a2:	3c 09                	cmp    $0x9,%al
  4020a4:	76 0e                	jbe    4020b4 <urlencode+0x59>
  4020a6:	8d 42 bf             	lea    -0x41(%rdx),%eax
  4020a9:	3c 19                	cmp    $0x19,%al
  4020ab:	76 07                	jbe    4020b4 <urlencode+0x59>
  4020ad:	8d 42 9f             	lea    -0x61(%rdx),%eax
  4020b0:	3c 19                	cmp    $0x19,%al
  4020b2:	77 09                	ja     4020bd <urlencode+0x62>
  4020b4:	88 55 00             	mov    %dl,0x0(%rbp)
  4020b7:	48 8d 6d 01          	lea    0x1(%rbp),%rbp
  4020bb:	eb 51                	jmp    40210e <urlencode+0xb3>
  4020bd:	80 fa 20             	cmp    $0x20,%dl
  4020c0:	75 0a                	jne    4020cc <urlencode+0x71>
  4020c2:	c6 45 00 2b          	movb   $0x2b,0x0(%rbp)
  4020c6:	48 8d 6d 01          	lea    0x1(%rbp),%rbp
  4020ca:	eb 42                	jmp    40210e <urlencode+0xb3>
  4020cc:	8d 42 e0             	lea    -0x20(%rdx),%eax
  4020cf:	3c 5f                	cmp    $0x5f,%al
  4020d1:	0f 96 c1             	setbe  %cl
  4020d4:	80 fa 09             	cmp    $0x9,%dl
  4020d7:	0f 94 c0             	sete   %al
  4020da:	08 c1                	or     %al,%cl
  4020dc:	74 45                	je     402123 <urlencode+0xc8>
  4020de:	0f b6 d2             	movzbl %dl,%edx
  4020e1:	be 98 34 40 00       	mov    $0x403498,%esi
  4020e6:	48 89 e7             	mov    %rsp,%rdi
  4020e9:	b8 00 00 00 00       	mov    $0x0,%eax
  4020ee:	e8 6d ec ff ff       	callq  400d60 <sprintf@plt>
  4020f3:	0f b6 04 24          	movzbl (%rsp),%eax
  4020f7:	88 45 00             	mov    %al,0x0(%rbp)
  4020fa:	0f b6 44 24 01       	movzbl 0x1(%rsp),%eax
  4020ff:	88 45 01             	mov    %al,0x1(%rbp)
  402102:	0f b6 44 24 02       	movzbl 0x2(%rsp),%eax
  402107:	88 45 02             	mov    %al,0x2(%rbp)
  40210a:	48 8d 6d 03          	lea    0x3(%rbp),%rbp
  40210e:	48 83 c3 01          	add    $0x1,%rbx
  402112:	44 89 e0             	mov    %r12d,%eax
  402115:	44 8d 60 ff          	lea    -0x1(%rax),%r12d
  402119:	85 c0                	test   %eax,%eax
  40211b:	0f 85 61 ff ff ff    	jne    402082 <urlencode+0x27>
  402121:	eb 05                	jmp    402128 <urlencode+0xcd>
  402123:	b8 ff ff ff ff       	mov    $0xffffffff,%eax
  402128:	48 83 c4 10          	add    $0x10,%rsp
  40212c:	5b                   	pop    %rbx
  40212d:	5d                   	pop    %rbp
  40212e:	41 5c                	pop    %r12
  402130:	c3                   	retq   

0000000000402131 <rio_writen>:
  402131:	41 55                	push   %r13
  402133:	41 54                	push   %r12
  402135:	55                   	push   %rbp
  402136:	53                   	push   %rbx
  402137:	48 83 ec 08          	sub    $0x8,%rsp
  40213b:	41 89 fc             	mov    %edi,%r12d
  40213e:	48 89 f5             	mov    %rsi,%rbp
  402141:	49 89 d5             	mov    %rdx,%r13
  402144:	48 89 d3             	mov    %rdx,%rbx
  402147:	eb 28                	jmp    402171 <rio_writen+0x40>
  402149:	48 89 da             	mov    %rbx,%rdx
  40214c:	48 89 ee             	mov    %rbp,%rsi
  40214f:	44 89 e7             	mov    %r12d,%edi
  402152:	e8 99 ea ff ff       	callq  400bf0 <write@plt>
  402157:	48 85 c0             	test   %rax,%rax
  40215a:	7f 0f                	jg     40216b <rio_writen+0x3a>
  40215c:	e8 3f ea ff ff       	callq  400ba0 <__errno_location@plt>
  402161:	83 38 04             	cmpl   $0x4,(%rax)
  402164:	75 15                	jne    40217b <rio_writen+0x4a>
  402166:	b8 00 00 00 00       	mov    $0x0,%eax
  40216b:	48 29 c3             	sub    %rax,%rbx
  40216e:	48 01 c5             	add    %rax,%rbp
  402171:	48 85 db             	test   %rbx,%rbx
  402174:	75 d3                	jne    402149 <rio_writen+0x18>
  402176:	4c 89 e8             	mov    %r13,%rax
  402179:	eb 07                	jmp    402182 <rio_writen+0x51>
  40217b:	48 c7 c0 ff ff ff ff 	mov    $0xffffffffffffffff,%rax
  402182:	48 83 c4 08          	add    $0x8,%rsp
  402186:	5b                   	pop    %rbx
  402187:	5d                   	pop    %rbp
  402188:	41 5c                	pop    %r12
  40218a:	41 5d                	pop    %r13
  40218c:	c3                   	retq   

000000000040218d <rio_read>:
  40218d:	41 56                	push   %r14
  40218f:	41 55                	push   %r13
  402191:	41 54                	push   %r12
  402193:	55                   	push   %rbp
  402194:	53                   	push   %rbx
  402195:	48 89 fb             	mov    %rdi,%rbx
  402198:	49 89 f6             	mov    %rsi,%r14
  40219b:	49 89 d5             	mov    %rdx,%r13
  40219e:	4c 8d 67 10          	lea    0x10(%rdi),%r12
  4021a2:	eb 2a                	jmp    4021ce <rio_read+0x41>
  4021a4:	ba 00 20 00 00       	mov    $0x2000,%edx
  4021a9:	4c 89 e6             	mov    %r12,%rsi
  4021ac:	8b 3b                	mov    (%rbx),%edi
  4021ae:	e8 9d ea ff ff       	callq  400c50 <read@plt>
  4021b3:	89 43 04             	mov    %eax,0x4(%rbx)
  4021b6:	85 c0                	test   %eax,%eax
  4021b8:	79 0c                	jns    4021c6 <rio_read+0x39>
  4021ba:	e8 e1 e9 ff ff       	callq  400ba0 <__errno_location@plt>
  4021bf:	83 38 04             	cmpl   $0x4,(%rax)
  4021c2:	74 0a                	je     4021ce <rio_read+0x41>
  4021c4:	eb 37                	jmp    4021fd <rio_read+0x70>
  4021c6:	85 c0                	test   %eax,%eax
  4021c8:	74 3c                	je     402206 <rio_read+0x79>
  4021ca:	4c 89 63 08          	mov    %r12,0x8(%rbx)
  4021ce:	8b 6b 04             	mov    0x4(%rbx),%ebp
  4021d1:	85 ed                	test   %ebp,%ebp
  4021d3:	7e cf                	jle    4021a4 <rio_read+0x17>
  4021d5:	89 e8                	mov    %ebp,%eax
  4021d7:	4c 39 e8             	cmp    %r13,%rax
  4021da:	72 03                	jb     4021df <rio_read+0x52>
  4021dc:	44 89 ed             	mov    %r13d,%ebp
  4021df:	4c 63 e5             	movslq %ebp,%r12
  4021e2:	48 8b 73 08          	mov    0x8(%rbx),%rsi
  4021e6:	4c 89 e2             	mov    %r12,%rdx
  4021e9:	4c 89 f7             	mov    %r14,%rdi
  4021ec:	e8 bf ea ff ff       	callq  400cb0 <memcpy@plt>
  4021f1:	4c 01 63 08          	add    %r12,0x8(%rbx)
  4021f5:	29 6b 04             	sub    %ebp,0x4(%rbx)
  4021f8:	4c 89 e0             	mov    %r12,%rax
  4021fb:	eb 0e                	jmp    40220b <rio_read+0x7e>
  4021fd:	48 c7 c0 ff ff ff ff 	mov    $0xffffffffffffffff,%rax
  402204:	eb 05                	jmp    40220b <rio_read+0x7e>
  402206:	b8 00 00 00 00       	mov    $0x0,%eax
  40220b:	5b                   	pop    %rbx
  40220c:	5d                   	pop    %rbp
  40220d:	41 5c                	pop    %r12
  40220f:	41 5d                	pop    %r13
  402211:	41 5e                	pop    %r14
  402213:	c3                   	retq   

0000000000402214 <rio_readlineb>:
  402214:	41 55                	push   %r13
  402216:	41 54                	push   %r12
  402218:	55                   	push   %rbp
  402219:	53                   	push   %rbx
  40221a:	48 83 ec 18          	sub    $0x18,%rsp
  40221e:	49 89 fd             	mov    %rdi,%r13
  402221:	48 89 f5             	mov    %rsi,%rbp
  402224:	49 89 d4             	mov    %rdx,%r12
  402227:	bb 01 00 00 00       	mov    $0x1,%ebx
  40222c:	eb 3d                	jmp    40226b <rio_readlineb+0x57>
  40222e:	ba 01 00 00 00       	mov    $0x1,%edx
  402233:	48 8d 74 24 0f       	lea    0xf(%rsp),%rsi
  402238:	4c 89 ef             	mov    %r13,%rdi
  40223b:	e8 4d ff ff ff       	callq  40218d <rio_read>
  402240:	83 f8 01             	cmp    $0x1,%eax
  402243:	75 12                	jne    402257 <rio_readlineb+0x43>
  402245:	48 8d 55 01          	lea    0x1(%rbp),%rdx
  402249:	0f b6 44 24 0f       	movzbl 0xf(%rsp),%eax
  40224e:	88 45 00             	mov    %al,0x0(%rbp)
  402251:	3c 0a                	cmp    $0xa,%al
  402253:	75 0f                	jne    402264 <rio_readlineb+0x50>
  402255:	eb 1b                	jmp    402272 <rio_readlineb+0x5e>
  402257:	85 c0                	test   %eax,%eax
  402259:	75 23                	jne    40227e <rio_readlineb+0x6a>
  40225b:	48 83 fb 01          	cmp    $0x1,%rbx
  40225f:	90                   	nop
  402260:	75 13                	jne    402275 <rio_readlineb+0x61>
  402262:	eb 23                	jmp    402287 <rio_readlineb+0x73>
  402264:	48 83 c3 01          	add    $0x1,%rbx
  402268:	48 89 d5             	mov    %rdx,%rbp
  40226b:	4c 39 e3             	cmp    %r12,%rbx
  40226e:	72 be                	jb     40222e <rio_readlineb+0x1a>
  402270:	eb 03                	jmp    402275 <rio_readlineb+0x61>
  402272:	48 89 d5             	mov    %rdx,%rbp
  402275:	c6 45 00 00          	movb   $0x0,0x0(%rbp)
  402279:	48 89 d8             	mov    %rbx,%rax
  40227c:	eb 0e                	jmp    40228c <rio_readlineb+0x78>
  40227e:	48 c7 c0 ff ff ff ff 	mov    $0xffffffffffffffff,%rax
  402285:	eb 05                	jmp    40228c <rio_readlineb+0x78>
  402287:	b8 00 00 00 00       	mov    $0x0,%eax
  40228c:	48 83 c4 18          	add    $0x18,%rsp
  402290:	5b                   	pop    %rbx
  402291:	5d                   	pop    %rbp
  402292:	41 5c                	pop    %r12
  402294:	41 5d                	pop    %r13
  402296:	c3                   	retq   

0000000000402297 <submitr>:
  402297:	41 57                	push   %r15
  402299:	41 56                	push   %r14
  40229b:	41 55                	push   %r13
  40229d:	41 54                	push   %r12
  40229f:	55                   	push   %rbp
  4022a0:	53                   	push   %rbx
  4022a1:	48 81 ec 48 a0 00 00 	sub    $0xa048,%rsp
  4022a8:	49 89 fc             	mov    %rdi,%r12
  4022ab:	89 74 24 04          	mov    %esi,0x4(%rsp)
  4022af:	49 89 d7             	mov    %rdx,%r15
  4022b2:	49 89 ce             	mov    %rcx,%r14
  4022b5:	4c 89 44 24 08       	mov    %r8,0x8(%rsp)
  4022ba:	4d 89 cd             	mov    %r9,%r13
  4022bd:	48 8b 9c 24 80 a0 00 	mov    0xa080(%rsp),%rbx
  4022c4:	00 
  4022c5:	c7 84 24 1c 20 00 00 	movl   $0x0,0x201c(%rsp)
  4022cc:	00 00 00 00 
  4022d0:	ba 00 00 00 00       	mov    $0x0,%edx
  4022d5:	be 01 00 00 00       	mov    $0x1,%esi
  4022da:	bf 02 00 00 00       	mov    $0x2,%edi
  4022df:	e8 ac ea ff ff       	callq  400d90 <socket@plt>
  4022e4:	89 c5                	mov    %eax,%ebp
  4022e6:	85 c0                	test   %eax,%eax
  4022e8:	79 4e                	jns    402338 <submitr+0xa1>
  4022ea:	48 b8 45 72 72 6f 72 	movabs $0x43203a726f727245,%rax
  4022f1:	3a 20 43 
  4022f4:	48 89 03             	mov    %rax,(%rbx)
  4022f7:	48 b8 6c 69 65 6e 74 	movabs $0x6e7520746e65696c,%rax
  4022fe:	20 75 6e 
  402301:	48 89 43 08          	mov    %rax,0x8(%rbx)
  402305:	48 b8 61 62 6c 65 20 	movabs $0x206f7420656c6261,%rax
  40230c:	74 6f 20 
  40230f:	48 89 43 10          	mov    %rax,0x10(%rbx)
  402313:	48 b8 63 72 65 61 74 	movabs $0x7320657461657263,%rax
  40231a:	65 20 73 
  40231d:	48 89 43 18          	mov    %rax,0x18(%rbx)
  402321:	c7 43 20 6f 63 6b 65 	movl   $0x656b636f,0x20(%rbx)
  402328:	66 c7 43 24 74 00    	movw   $0x74,0x24(%rbx)
  40232e:	b8 ff ff ff ff       	mov    $0xffffffff,%eax
  402333:	e9 68 06 00 00       	jmpq   4029a0 <submitr+0x709>
  402338:	4c 89 e7             	mov    %r12,%rdi
  40233b:	e8 40 e9 ff ff       	callq  400c80 <gethostbyname@plt>
  402340:	48 85 c0             	test   %rax,%rax
  402343:	75 67                	jne    4023ac <submitr+0x115>
  402345:	48 b8 45 72 72 6f 72 	movabs $0x44203a726f727245,%rax
  40234c:	3a 20 44 
  40234f:	48 89 03             	mov    %rax,(%rbx)
  402352:	48 b8 4e 53 20 69 73 	movabs $0x6e7520736920534e,%rax
  402359:	20 75 6e 
  40235c:	48 89 43 08          	mov    %rax,0x8(%rbx)
  402360:	48 b8 61 62 6c 65 20 	movabs $0x206f7420656c6261,%rax
  402367:	74 6f 20 
  40236a:	48 89 43 10          	mov    %rax,0x10(%rbx)
  40236e:	48 b8 72 65 73 6f 6c 	movabs $0x2065766c6f736572,%rax
  402375:	76 65 20 
  402378:	48 89 43 18          	mov    %rax,0x18(%rbx)
  40237c:	48 b8 73 65 72 76 65 	movabs $0x6120726576726573,%rax
  402383:	72 20 61 
  402386:	48 89 43 20          	mov    %rax,0x20(%rbx)
  40238a:	c7 43 28 64 64 72 65 	movl   $0x65726464,0x28(%rbx)
  402391:	66 c7 43 2c 73 73    	movw   $0x7373,0x2c(%rbx)
  402397:	c6 43 2e 00          	movb   $0x0,0x2e(%rbx)
  40239b:	89 ef                	mov    %ebp,%edi
  40239d:	e8 9e e8 ff ff       	callq  400c40 <close@plt>
  4023a2:	b8 ff ff ff ff       	mov    $0xffffffff,%eax
  4023a7:	e9 f4 05 00 00       	jmpq   4029a0 <submitr+0x709>
  4023ac:	48 c7 84 24 30 a0 00 	movq   $0x0,0xa030(%rsp)
  4023b3:	00 00 00 00 00 
  4023b8:	48 c7 84 24 38 a0 00 	movq   $0x0,0xa038(%rsp)
  4023bf:	00 00 00 00 00 
  4023c4:	66 c7 84 24 30 a0 00 	movw   $0x2,0xa030(%rsp)
  4023cb:	00 02 00 
  4023ce:	48 8b 48 18          	mov    0x18(%rax),%rcx
  4023d2:	48 63 50 14          	movslq 0x14(%rax),%rdx
  4023d6:	48 8d b4 24 34 a0 00 	lea    0xa034(%rsp),%rsi
  4023dd:	00 
  4023de:	48 8b 39             	mov    (%rcx),%rdi
  4023e1:	e8 2a e9 ff ff       	callq  400d10 <bcopy@plt>
  4023e6:	0f b7 44 24 04       	movzwl 0x4(%rsp),%eax
  4023eb:	66 c1 c8 08          	ror    $0x8,%ax
  4023ef:	66 89 84 24 32 a0 00 	mov    %ax,0xa032(%rsp)
  4023f6:	00 
  4023f7:	ba 10 00 00 00       	mov    $0x10,%edx
  4023fc:	48 8d b4 24 30 a0 00 	lea    0xa030(%rsp),%rsi
  402403:	00 
  402404:	89 ef                	mov    %ebp,%edi
  402406:	e8 75 e9 ff ff       	callq  400d80 <connect@plt>
  40240b:	85 c0                	test   %eax,%eax
  40240d:	79 59                	jns    402468 <submitr+0x1d1>
  40240f:	48 b8 45 72 72 6f 72 	movabs $0x55203a726f727245,%rax
  402416:	3a 20 55 
  402419:	48 89 03             	mov    %rax,(%rbx)
  40241c:	48 b8 6e 61 62 6c 65 	movabs $0x6f7420656c62616e,%rax
  402423:	20 74 6f 
  402426:	48 89 43 08          	mov    %rax,0x8(%rbx)
  40242a:	48 b8 20 63 6f 6e 6e 	movabs $0x7463656e6e6f6320,%rax
  402431:	65 63 74 
  402434:	48 89 43 10          	mov    %rax,0x10(%rbx)
  402438:	48 b8 20 74 6f 20 74 	movabs $0x20656874206f7420,%rax
  40243f:	68 65 20 
  402442:	48 89 43 18          	mov    %rax,0x18(%rbx)
  402446:	c7 43 20 73 65 72 76 	movl   $0x76726573,0x20(%rbx)
  40244d:	66 c7 43 24 65 72    	movw   $0x7265,0x24(%rbx)
  402453:	c6 43 26 00          	movb   $0x0,0x26(%rbx)
  402457:	89 ef                	mov    %ebp,%edi
  402459:	e8 e2 e7 ff ff       	callq  400c40 <close@plt>
  40245e:	b8 ff ff ff ff       	mov    $0xffffffff,%eax
  402463:	e9 38 05 00 00       	jmpq   4029a0 <submitr+0x709>
  402468:	48 c7 c2 ff ff ff ff 	mov    $0xffffffffffffffff,%rdx
  40246f:	4c 89 ef             	mov    %r13,%rdi
  402472:	b8 00 00 00 00       	mov    $0x0,%eax
  402477:	48 89 d1             	mov    %rdx,%rcx
  40247a:	f2 ae                	repnz scas %es:(%rdi),%al
  40247c:	48 f7 d1             	not    %rcx
  40247f:	48 89 ce             	mov    %rcx,%rsi
  402482:	4c 89 ff             	mov    %r15,%rdi
  402485:	48 89 d1             	mov    %rdx,%rcx
  402488:	f2 ae                	repnz scas %es:(%rdi),%al
  40248a:	48 f7 d1             	not    %rcx
  40248d:	49 89 c8             	mov    %rcx,%r8
  402490:	4c 89 f7             	mov    %r14,%rdi
  402493:	48 89 d1             	mov    %rdx,%rcx
  402496:	f2 ae                	repnz scas %es:(%rdi),%al
  402498:	49 29 c8             	sub    %rcx,%r8
  40249b:	48 8b 7c 24 08       	mov    0x8(%rsp),%rdi
  4024a0:	48 89 d1             	mov    %rdx,%rcx
  4024a3:	f2 ae                	repnz scas %es:(%rdi),%al
  4024a5:	49 29 c8             	sub    %rcx,%r8
  4024a8:	48 8d 44 76 fd       	lea    -0x3(%rsi,%rsi,2),%rax
  4024ad:	49 8d 44 00 7b       	lea    0x7b(%r8,%rax,1),%rax
  4024b2:	48 3d 00 20 00 00    	cmp    $0x2000,%rax
  4024b8:	76 72                	jbe    40252c <submitr+0x295>
  4024ba:	48 b8 45 72 72 6f 72 	movabs $0x52203a726f727245,%rax
  4024c1:	3a 20 52 
  4024c4:	48 89 03             	mov    %rax,(%rbx)
  4024c7:	48 b8 65 73 75 6c 74 	movabs $0x747320746c757365,%rax
  4024ce:	20 73 74 
  4024d1:	48 89 43 08          	mov    %rax,0x8(%rbx)
  4024d5:	48 b8 72 69 6e 67 20 	movabs $0x6f6f7420676e6972,%rax
  4024dc:	74 6f 6f 
  4024df:	48 89 43 10          	mov    %rax,0x10(%rbx)
  4024e3:	48 b8 20 6c 61 72 67 	movabs $0x202e656772616c20,%rax
  4024ea:	65 2e 20 
  4024ed:	48 89 43 18          	mov    %rax,0x18(%rbx)
  4024f1:	48 b8 49 6e 63 72 65 	movabs $0x6573616572636e49,%rax
  4024f8:	61 73 65 
  4024fb:	48 89 43 20          	mov    %rax,0x20(%rbx)
  4024ff:	48 b8 20 53 55 42 4d 	movabs $0x5254494d42555320,%rax
  402506:	49 54 52 
  402509:	48 89 43 28          	mov    %rax,0x28(%rbx)
  40250d:	48 b8 5f 4d 41 58 42 	movabs $0x46554258414d5f,%rax
  402514:	55 46 00 
  402517:	48 89 43 30          	mov    %rax,0x30(%rbx)
  40251b:	89 ef                	mov    %ebp,%edi
  40251d:	e8 1e e7 ff ff       	callq  400c40 <close@plt>
  402522:	b8 ff ff ff ff       	mov    $0xffffffff,%eax
  402527:	e9 74 04 00 00       	jmpq   4029a0 <submitr+0x709>
  40252c:	48 8d b4 24 20 40 00 	lea    0x4020(%rsp),%rsi
  402533:	00 
  402534:	b9 00 04 00 00       	mov    $0x400,%ecx
  402539:	b8 00 00 00 00       	mov    $0x0,%eax
  40253e:	48 89 f7             	mov    %rsi,%rdi
  402541:	f3 48 ab             	rep stos %rax,%es:(%rdi)
  402544:	4c 89 ef             	mov    %r13,%rdi
  402547:	e8 0f fb ff ff       	callq  40205b <urlencode>
  40254c:	85 c0                	test   %eax,%eax
  40254e:	0f 89 8a 00 00 00    	jns    4025de <submitr+0x347>
  402554:	48 b8 45 72 72 6f 72 	movabs $0x52203a726f727245,%rax
  40255b:	3a 20 52 
  40255e:	48 89 03             	mov    %rax,(%rbx)
  402561:	48 b8 65 73 75 6c 74 	movabs $0x747320746c757365,%rax
  402568:	20 73 74 
  40256b:	48 89 43 08          	mov    %rax,0x8(%rbx)
  40256f:	48 b8 72 69 6e 67 20 	movabs $0x6e6f6320676e6972,%rax
  402576:	63 6f 6e 
  402579:	48 89 43 10          	mov    %rax,0x10(%rbx)
  40257d:	48 b8 74 61 69 6e 73 	movabs $0x6e6120736e696174,%rax
  402584:	20 61 6e 
  402587:	48 89 43 18          	mov    %rax,0x18(%rbx)
  40258b:	48 b8 20 69 6c 6c 65 	movabs $0x6c6167656c6c6920,%rax
  402592:	67 61 6c 
  402595:	48 89 43 20          	mov    %rax,0x20(%rbx)
  402599:	48 b8 20 6f 72 20 75 	movabs $0x72706e7520726f20,%rax
  4025a0:	6e 70 72 
  4025a3:	48 89 43 28          	mov    %rax,0x28(%rbx)
  4025a7:	48 b8 69 6e 74 61 62 	movabs $0x20656c6261746e69,%rax
  4025ae:	6c 65 20 
  4025b1:	48 89 43 30          	mov    %rax,0x30(%rbx)
  4025b5:	48 b8 63 68 61 72 61 	movabs $0x6574636172616863,%rax
  4025bc:	63 74 65 
  4025bf:	48 89 43 38          	mov    %rax,0x38(%rbx)
  4025c3:	66 c7 43 40 72 2e    	movw   $0x2e72,0x40(%rbx)
  4025c9:	c6 43 42 00          	movb   $0x0,0x42(%rbx)
  4025cd:	89 ef                	mov    %ebp,%edi
  4025cf:	e8 6c e6 ff ff       	callq  400c40 <close@plt>
  4025d4:	b8 ff ff ff ff       	mov    $0xffffffff,%eax
  4025d9:	e9 c2 03 00 00       	jmpq   4029a0 <submitr+0x709>
  4025de:	4d 89 e1             	mov    %r12,%r9
  4025e1:	4c 8d 84 24 20 40 00 	lea    0x4020(%rsp),%r8
  4025e8:	00 
  4025e9:	4c 89 f9             	mov    %r15,%rcx
  4025ec:	4c 89 f2             	mov    %r14,%rdx
  4025ef:	be 28 34 40 00       	mov    $0x403428,%esi
  4025f4:	48 8d bc 24 20 60 00 	lea    0x6020(%rsp),%rdi
  4025fb:	00 
  4025fc:	b8 00 00 00 00       	mov    $0x0,%eax
  402601:	e8 5a e7 ff ff       	callq  400d60 <sprintf@plt>
  402606:	48 8d bc 24 20 60 00 	lea    0x6020(%rsp),%rdi
  40260d:	00 
  40260e:	b8 00 00 00 00       	mov    $0x0,%eax
  402613:	48 c7 c1 ff ff ff ff 	mov    $0xffffffffffffffff,%rcx
  40261a:	f2 ae                	repnz scas %es:(%rdi),%al
  40261c:	48 f7 d1             	not    %rcx
  40261f:	48 8d 51 ff          	lea    -0x1(%rcx),%rdx
  402623:	48 8d b4 24 20 60 00 	lea    0x6020(%rsp),%rsi
  40262a:	00 
  40262b:	89 ef                	mov    %ebp,%edi
  40262d:	e8 ff fa ff ff       	callq  402131 <rio_writen>
  402632:	48 85 c0             	test   %rax,%rax
  402635:	79 6e                	jns    4026a5 <submitr+0x40e>
  402637:	48 b8 45 72 72 6f 72 	movabs $0x43203a726f727245,%rax
  40263e:	3a 20 43 
  402641:	48 89 03             	mov    %rax,(%rbx)
  402644:	48 b8 6c 69 65 6e 74 	movabs $0x6e7520746e65696c,%rax
  40264b:	20 75 6e 
  40264e:	48 89 43 08          	mov    %rax,0x8(%rbx)
  402652:	48 b8 61 62 6c 65 20 	movabs $0x206f7420656c6261,%rax
  402659:	74 6f 20 
  40265c:	48 89 43 10          	mov    %rax,0x10(%rbx)
  402660:	48 b8 77 72 69 74 65 	movabs $0x6f74206574697277,%rax
  402667:	20 74 6f 
  40266a:	48 89 43 18          	mov    %rax,0x18(%rbx)
  40266e:	48 b8 20 74 68 65 20 	movabs $0x7365722065687420,%rax
  402675:	72 65 73 
  402678:	48 89 43 20          	mov    %rax,0x20(%rbx)
  40267c:	48 b8 75 6c 74 20 73 	movabs $0x7672657320746c75,%rax
  402683:	65 72 76 
  402686:	48 89 43 28          	mov    %rax,0x28(%rbx)
  40268a:	66 c7 43 30 65 72    	movw   $0x7265,0x30(%rbx)
  402690:	c6 43 32 00          	movb   $0x0,0x32(%rbx)
  402694:	89 ef                	mov    %ebp,%edi
  402696:	e8 a5 e5 ff ff       	callq  400c40 <close@plt>
  40269b:	b8 ff ff ff ff       	mov    $0xffffffff,%eax
  4026a0:	e9 fb 02 00 00       	jmpq   4029a0 <submitr+0x709>
  4026a5:	89 ee                	mov    %ebp,%esi
  4026a7:	48 8d bc 24 20 80 00 	lea    0x8020(%rsp),%rdi
  4026ae:	00 
  4026af:	e8 6c f9 ff ff       	callq  402020 <rio_readinitb>
  4026b4:	ba 00 20 00 00       	mov    $0x2000,%edx
  4026b9:	48 8d b4 24 20 60 00 	lea    0x6020(%rsp),%rsi
  4026c0:	00 
  4026c1:	48 8d bc 24 20 80 00 	lea    0x8020(%rsp),%rdi
  4026c8:	00 
  4026c9:	e8 46 fb ff ff       	callq  402214 <rio_readlineb>
  4026ce:	48 85 c0             	test   %rax,%rax
  4026d1:	7f 7d                	jg     402750 <submitr+0x4b9>
  4026d3:	48 b8 45 72 72 6f 72 	movabs $0x43203a726f727245,%rax
  4026da:	3a 20 43 
  4026dd:	48 89 03             	mov    %rax,(%rbx)
  4026e0:	48 b8 6c 69 65 6e 74 	movabs $0x6e7520746e65696c,%rax
  4026e7:	20 75 6e 
  4026ea:	48 89 43 08          	mov    %rax,0x8(%rbx)
  4026ee:	48 b8 61 62 6c 65 20 	movabs $0x206f7420656c6261,%rax
  4026f5:	74 6f 20 
  4026f8:	48 89 43 10          	mov    %rax,0x10(%rbx)
  4026fc:	48 b8 72 65 61 64 20 	movabs $0x7269662064616572,%rax
  402703:	66 69 72 
  402706:	48 89 43 18          	mov    %rax,0x18(%rbx)
  40270a:	48 b8 73 74 20 68 65 	movabs $0x6564616568207473,%rax
  402711:	61 64 65 
  402714:	48 89 43 20          	mov    %rax,0x20(%rbx)
  402718:	48 b8 72 20 66 72 6f 	movabs $0x72206d6f72662072,%rax
  40271f:	6d 20 72 
  402722:	48 89 43 28          	mov    %rax,0x28(%rbx)
  402726:	48 b8 65 73 75 6c 74 	movabs $0x657320746c757365,%rax
  40272d:	20 73 65 
  402730:	48 89 43 30          	mov    %rax,0x30(%rbx)
  402734:	c7 43 38 72 76 65 72 	movl   $0x72657672,0x38(%rbx)
  40273b:	c6 43 3c 00          	movb   $0x0,0x3c(%rbx)
  40273f:	89 ef                	mov    %ebp,%edi
  402741:	e8 fa e4 ff ff       	callq  400c40 <close@plt>
  402746:	b8 ff ff ff ff       	mov    $0xffffffff,%eax
  40274b:	e9 50 02 00 00       	jmpq   4029a0 <submitr+0x709>
  402750:	4c 8d 44 24 10       	lea    0x10(%rsp),%r8
  402755:	48 8d 8c 24 1c 20 00 	lea    0x201c(%rsp),%rcx
  40275c:	00 
  40275d:	48 8d 94 24 20 20 00 	lea    0x2020(%rsp),%rdx
  402764:	00 
  402765:	be 9f 34 40 00       	mov    $0x40349f,%esi
  40276a:	48 8d bc 24 20 60 00 	lea    0x6020(%rsp),%rdi
  402771:	00 
  402772:	b8 00 00 00 00       	mov    $0x0,%eax
  402777:	e8 74 e5 ff ff       	callq  400cf0 <__isoc99_sscanf@plt>
  40277c:	e9 98 00 00 00       	jmpq   402819 <submitr+0x582>
  402781:	ba 00 20 00 00       	mov    $0x2000,%edx
  402786:	48 8d b4 24 20 60 00 	lea    0x6020(%rsp),%rsi
  40278d:	00 
  40278e:	48 8d bc 24 20 80 00 	lea    0x8020(%rsp),%rdi
  402795:	00 
  402796:	e8 79 fa ff ff       	callq  402214 <rio_readlineb>
  40279b:	48 85 c0             	test   %rax,%rax
  40279e:	7f 79                	jg     402819 <submitr+0x582>
  4027a0:	48 b8 45 72 72 6f 72 	movabs $0x43203a726f727245,%rax
  4027a7:	3a 20 43 
  4027aa:	48 89 03             	mov    %rax,(%rbx)
  4027ad:	48 b8 6c 69 65 6e 74 	movabs $0x6e7520746e65696c,%rax
  4027b4:	20 75 6e 
  4027b7:	48 89 43 08          	mov    %rax,0x8(%rbx)
  4027bb:	48 b8 61 62 6c 65 20 	movabs $0x206f7420656c6261,%rax
  4027c2:	74 6f 20 
  4027c5:	48 89 43 10          	mov    %rax,0x10(%rbx)
  4027c9:	48 b8 72 65 61 64 20 	movabs $0x6165682064616572,%rax
  4027d0:	68 65 61 
  4027d3:	48 89 43 18          	mov    %rax,0x18(%rbx)
  4027d7:	48 b8 64 65 72 73 20 	movabs $0x6f72662073726564,%rax
  4027de:	66 72 6f 
  4027e1:	48 89 43 20          	mov    %rax,0x20(%rbx)
  4027e5:	48 b8 6d 20 74 68 65 	movabs $0x657220656874206d,%rax
  4027ec:	20 72 65 
  4027ef:	48 89 43 28          	mov    %rax,0x28(%rbx)
  4027f3:	48 b8 73 75 6c 74 20 	movabs $0x72657320746c7573,%rax
  4027fa:	73 65 72 
  4027fd:	48 89 43 30          	mov    %rax,0x30(%rbx)
  402801:	c7 43 38 76 65 72 00 	movl   $0x726576,0x38(%rbx)
  402808:	89 ef                	mov    %ebp,%edi
  40280a:	e8 31 e4 ff ff       	callq  400c40 <close@plt>
  40280f:	b8 ff ff ff ff       	mov    $0xffffffff,%eax
  402814:	e9 87 01 00 00       	jmpq   4029a0 <submitr+0x709>
  402819:	0f b6 84 24 20 60 00 	movzbl 0x6020(%rsp),%eax
  402820:	00 
  402821:	83 e8 0d             	sub    $0xd,%eax
  402824:	75 15                	jne    40283b <submitr+0x5a4>
  402826:	0f b6 84 24 21 60 00 	movzbl 0x6021(%rsp),%eax
  40282d:	00 
  40282e:	83 e8 0a             	sub    $0xa,%eax
  402831:	75 08                	jne    40283b <submitr+0x5a4>
  402833:	0f b6 84 24 22 60 00 	movzbl 0x6022(%rsp),%eax
  40283a:	00 
  40283b:	85 c0                	test   %eax,%eax
  40283d:	0f 85 3e ff ff ff    	jne    402781 <submitr+0x4ea>
  402843:	ba 00 20 00 00       	mov    $0x2000,%edx
  402848:	48 8d b4 24 20 60 00 	lea    0x6020(%rsp),%rsi
  40284f:	00 
  402850:	48 8d bc 24 20 80 00 	lea    0x8020(%rsp),%rdi
  402857:	00 
  402858:	e8 b7 f9 ff ff       	callq  402214 <rio_readlineb>
  40285d:	48 85 c0             	test   %rax,%rax
  402860:	0f 8f 83 00 00 00    	jg     4028e9 <submitr+0x652>
  402866:	48 b8 45 72 72 6f 72 	movabs $0x43203a726f727245,%rax
  40286d:	3a 20 43 
  402870:	48 89 03             	mov    %rax,(%rbx)
  402873:	48 b8 6c 69 65 6e 74 	movabs $0x6e7520746e65696c,%rax
  40287a:	20 75 6e 
  40287d:	48 89 43 08          	mov    %rax,0x8(%rbx)
  402881:	48 b8 61 62 6c 65 20 	movabs $0x206f7420656c6261,%rax
  402888:	74 6f 20 
  40288b:	48 89 43 10          	mov    %rax,0x10(%rbx)
  40288f:	48 b8 72 65 61 64 20 	movabs $0x6174732064616572,%rax
  402896:	73 74 61 
  402899:	48 89 43 18          	mov    %rax,0x18(%rbx)
  40289d:	48 b8 74 75 73 20 6d 	movabs $0x7373656d20737574,%rax
  4028a4:	65 73 73 
  4028a7:	48 89 43 20          	mov    %rax,0x20(%rbx)
  4028ab:	48 b8 61 67 65 20 66 	movabs $0x6d6f726620656761,%rax
  4028b2:	72 6f 6d 
  4028b5:	48 89 43 28          	mov    %rax,0x28(%rbx)
  4028b9:	48 b8 20 72 65 73 75 	movabs $0x20746c7573657220,%rax
  4028c0:	6c 74 20 
  4028c3:	48 89 43 30          	mov    %rax,0x30(%rbx)
  4028c7:	c7 43 38 73 65 72 76 	movl   $0x76726573,0x38(%rbx)
  4028ce:	66 c7 43 3c 65 72    	movw   $0x7265,0x3c(%rbx)
  4028d4:	c6 43 3e 00          	movb   $0x0,0x3e(%rbx)
  4028d8:	89 ef                	mov    %ebp,%edi
  4028da:	e8 61 e3 ff ff       	callq  400c40 <close@plt>
  4028df:	b8 ff ff ff ff       	mov    $0xffffffff,%eax
  4028e4:	e9 b7 00 00 00       	jmpq   4029a0 <submitr+0x709>
  4028e9:	8b 94 24 1c 20 00 00 	mov    0x201c(%rsp),%edx
  4028f0:	81 fa c8 00 00 00    	cmp    $0xc8,%edx
  4028f6:	74 28                	je     402920 <submitr+0x689>
  4028f8:	48 8d 4c 24 10       	lea    0x10(%rsp),%rcx
  4028fd:	be 68 34 40 00       	mov    $0x403468,%esi
  402902:	48 89 df             	mov    %rbx,%rdi
  402905:	b8 00 00 00 00       	mov    $0x0,%eax
  40290a:	e8 51 e4 ff ff       	callq  400d60 <sprintf@plt>
  40290f:	89 ef                	mov    %ebp,%edi
  402911:	e8 2a e3 ff ff       	callq  400c40 <close@plt>
  402916:	b8 ff ff ff ff       	mov    $0xffffffff,%eax
  40291b:	e9 80 00 00 00       	jmpq   4029a0 <submitr+0x709>
  402920:	48 8d b4 24 20 60 00 	lea    0x6020(%rsp),%rsi
  402927:	00 
  402928:	48 89 df             	mov    %rbx,%rdi
  40292b:	e8 a0 e2 ff ff       	callq  400bd0 <strcpy@plt>
  402930:	89 ef                	mov    %ebp,%edi
  402932:	e8 09 e3 ff ff       	callq  400c40 <close@plt>
  402937:	0f b6 03             	movzbl (%rbx),%eax
  40293a:	83 e8 4f             	sub    $0x4f,%eax
  40293d:	75 18                	jne    402957 <submitr+0x6c0>
  40293f:	0f b6 53 01          	movzbl 0x1(%rbx),%edx
  402943:	83 ea 4b             	sub    $0x4b,%edx
  402946:	75 11                	jne    402959 <submitr+0x6c2>
  402948:	0f b6 53 02          	movzbl 0x2(%rbx),%edx
  40294c:	83 ea 0a             	sub    $0xa,%edx
  40294f:	75 08                	jne    402959 <submitr+0x6c2>
  402951:	0f b6 53 03          	movzbl 0x3(%rbx),%edx
  402955:	eb 02                	jmp    402959 <submitr+0x6c2>
  402957:	89 c2                	mov    %eax,%edx
  402959:	85 d2                	test   %edx,%edx
  40295b:	74 30                	je     40298d <submitr+0x6f6>
  40295d:	bf b0 34 40 00       	mov    $0x4034b0,%edi
  402962:	b9 05 00 00 00       	mov    $0x5,%ecx
  402967:	48 89 de             	mov    %rbx,%rsi
  40296a:	f3 a6                	repz cmpsb %es:(%rdi),%ds:(%rsi)
  40296c:	0f 97 c1             	seta   %cl
  40296f:	0f 92 c2             	setb   %dl
  402972:	38 d1                	cmp    %dl,%cl
  402974:	74 1e                	je     402994 <submitr+0x6fd>
  402976:	85 c0                	test   %eax,%eax
  402978:	75 0d                	jne    402987 <submitr+0x6f0>
  40297a:	0f b6 43 01          	movzbl 0x1(%rbx),%eax
  40297e:	83 e8 4b             	sub    $0x4b,%eax
  402981:	75 04                	jne    402987 <submitr+0x6f0>
  402983:	0f b6 43 02          	movzbl 0x2(%rbx),%eax
  402987:	85 c0                	test   %eax,%eax
  402989:	75 10                	jne    40299b <submitr+0x704>
  40298b:	eb 13                	jmp    4029a0 <submitr+0x709>
  40298d:	b8 00 00 00 00       	mov    $0x0,%eax
  402992:	eb 0c                	jmp    4029a0 <submitr+0x709>
  402994:	b8 00 00 00 00       	mov    $0x0,%eax
  402999:	eb 05                	jmp    4029a0 <submitr+0x709>
  40299b:	b8 ff ff ff ff       	mov    $0xffffffff,%eax
  4029a0:	48 81 c4 48 a0 00 00 	add    $0xa048,%rsp
  4029a7:	5b                   	pop    %rbx
  4029a8:	5d                   	pop    %rbp
  4029a9:	41 5c                	pop    %r12
  4029ab:	41 5d                	pop    %r13
  4029ad:	41 5e                	pop    %r14
  4029af:	41 5f                	pop    %r15
  4029b1:	c3                   	retq   

00000000004029b2 <init_timeout>:
  4029b2:	53                   	push   %rbx
  4029b3:	89 fb                	mov    %edi,%ebx
  4029b5:	85 ff                	test   %edi,%edi
  4029b7:	74 1f                	je     4029d8 <init_timeout+0x26>
  4029b9:	85 ff                	test   %edi,%edi
  4029bb:	79 05                	jns    4029c2 <init_timeout+0x10>
  4029bd:	bb 00 00 00 00       	mov    $0x0,%ebx
  4029c2:	be 32 20 40 00       	mov    $0x402032,%esi
  4029c7:	bf 0e 00 00 00       	mov    $0xe,%edi
  4029cc:	e8 9f e2 ff ff       	callq  400c70 <signal@plt>
  4029d1:	89 df                	mov    %ebx,%edi
  4029d3:	e8 58 e2 ff ff       	callq  400c30 <alarm@plt>
  4029d8:	5b                   	pop    %rbx
  4029d9:	c3                   	retq   

00000000004029da <init_driver>:
  4029da:	55                   	push   %rbp
  4029db:	53                   	push   %rbx
  4029dc:	48 83 ec 18          	sub    $0x18,%rsp
  4029e0:	48 89 fd             	mov    %rdi,%rbp
  4029e3:	be 01 00 00 00       	mov    $0x1,%esi
  4029e8:	bf 0d 00 00 00       	mov    $0xd,%edi
  4029ed:	e8 7e e2 ff ff       	callq  400c70 <signal@plt>
  4029f2:	be 01 00 00 00       	mov    $0x1,%esi
  4029f7:	bf 1d 00 00 00       	mov    $0x1d,%edi
  4029fc:	e8 6f e2 ff ff       	callq  400c70 <signal@plt>
  402a01:	be 01 00 00 00       	mov    $0x1,%esi
  402a06:	bf 1d 00 00 00       	mov    $0x1d,%edi
  402a0b:	e8 60 e2 ff ff       	callq  400c70 <signal@plt>
  402a10:	ba 00 00 00 00       	mov    $0x0,%edx
  402a15:	be 01 00 00 00       	mov    $0x1,%esi
  402a1a:	bf 02 00 00 00       	mov    $0x2,%edi
  402a1f:	e8 6c e3 ff ff       	callq  400d90 <socket@plt>
  402a24:	89 c3                	mov    %eax,%ebx
  402a26:	85 c0                	test   %eax,%eax
  402a28:	79 4f                	jns    402a79 <init_driver+0x9f>
  402a2a:	48 b8 45 72 72 6f 72 	movabs $0x43203a726f727245,%rax
  402a31:	3a 20 43 
  402a34:	48 89 45 00          	mov    %rax,0x0(%rbp)
  402a38:	48 b8 6c 69 65 6e 74 	movabs $0x6e7520746e65696c,%rax
  402a3f:	20 75 6e 
  402a42:	48 89 45 08          	mov    %rax,0x8(%rbp)
  402a46:	48 b8 61 62 6c 65 20 	movabs $0x206f7420656c6261,%rax
  402a4d:	74 6f 20 
  402a50:	48 89 45 10          	mov    %rax,0x10(%rbp)
  402a54:	48 b8 63 72 65 61 74 	movabs $0x7320657461657263,%rax
  402a5b:	65 20 73 
  402a5e:	48 89 45 18          	mov    %rax,0x18(%rbp)
  402a62:	c7 45 20 6f 63 6b 65 	movl   $0x656b636f,0x20(%rbp)
  402a69:	66 c7 45 24 74 00    	movw   $0x74,0x24(%rbp)
  402a6f:	b8 ff ff ff ff       	mov    $0xffffffff,%eax
  402a74:	e9 23 01 00 00       	jmpq   402b9c <init_driver+0x1c2>
  402a79:	bf b5 34 40 00       	mov    $0x4034b5,%edi
  402a7e:	e8 fd e1 ff ff       	callq  400c80 <gethostbyname@plt>
  402a83:	48 85 c0             	test   %rax,%rax
  402a86:	75 68                	jne    402af0 <init_driver+0x116>
  402a88:	48 b8 45 72 72 6f 72 	movabs $0x44203a726f727245,%rax
  402a8f:	3a 20 44 
  402a92:	48 89 45 00          	mov    %rax,0x0(%rbp)
  402a96:	48 b8 4e 53 20 69 73 	movabs $0x6e7520736920534e,%rax
  402a9d:	20 75 6e 
  402aa0:	48 89 45 08          	mov    %rax,0x8(%rbp)
  402aa4:	48 b8 61 62 6c 65 20 	movabs $0x206f7420656c6261,%rax
  402aab:	74 6f 20 
  402aae:	48 89 45 10          	mov    %rax,0x10(%rbp)
  402ab2:	48 b8 72 65 73 6f 6c 	movabs $0x2065766c6f736572,%rax
  402ab9:	76 65 20 
  402abc:	48 89 45 18          	mov    %rax,0x18(%rbp)
  402ac0:	48 b8 73 65 72 76 65 	movabs $0x6120726576726573,%rax
  402ac7:	72 20 61 
  402aca:	48 89 45 20          	mov    %rax,0x20(%rbp)
  402ace:	c7 45 28 64 64 72 65 	movl   $0x65726464,0x28(%rbp)
  402ad5:	66 c7 45 2c 73 73    	movw   $0x7373,0x2c(%rbp)
  402adb:	c6 45 2e 00          	movb   $0x0,0x2e(%rbp)
  402adf:	89 df                	mov    %ebx,%edi
  402ae1:	e8 5a e1 ff ff       	callq  400c40 <close@plt>
  402ae6:	b8 ff ff ff ff       	mov    $0xffffffff,%eax
  402aeb:	e9 ac 00 00 00       	jmpq   402b9c <init_driver+0x1c2>
  402af0:	48 c7 04 24 00 00 00 	movq   $0x0,(%rsp)
  402af7:	00 
  402af8:	48 c7 44 24 08 00 00 	movq   $0x0,0x8(%rsp)
  402aff:	00 00 
  402b01:	66 c7 04 24 02 00    	movw   $0x2,(%rsp)
  402b07:	48 8b 48 18          	mov    0x18(%rax),%rcx
  402b0b:	48 63 50 14          	movslq 0x14(%rax),%rdx
  402b0f:	48 8d 74 24 04       	lea    0x4(%rsp),%rsi
  402b14:	48 8b 39             	mov    (%rcx),%rdi
  402b17:	e8 f4 e1 ff ff       	callq  400d10 <bcopy@plt>
  402b1c:	66 c7 44 24 02 3c 9a 	movw   $0x9a3c,0x2(%rsp)
  402b23:	ba 10 00 00 00       	mov    $0x10,%edx
  402b28:	48 89 e6             	mov    %rsp,%rsi
  402b2b:	89 df                	mov    %ebx,%edi
  402b2d:	e8 4e e2 ff ff       	callq  400d80 <connect@plt>
  402b32:	85 c0                	test   %eax,%eax
  402b34:	79 50                	jns    402b86 <init_driver+0x1ac>
  402b36:	48 b8 45 72 72 6f 72 	movabs $0x55203a726f727245,%rax
  402b3d:	3a 20 55 
  402b40:	48 89 45 00          	mov    %rax,0x0(%rbp)
  402b44:	48 b8 6e 61 62 6c 65 	movabs $0x6f7420656c62616e,%rax
  402b4b:	20 74 6f 
  402b4e:	48 89 45 08          	mov    %rax,0x8(%rbp)
  402b52:	48 b8 20 63 6f 6e 6e 	movabs $0x7463656e6e6f6320,%rax
  402b59:	65 63 74 
  402b5c:	48 89 45 10          	mov    %rax,0x10(%rbp)
  402b60:	48 b8 20 74 6f 20 73 	movabs $0x76726573206f7420,%rax
  402b67:	65 72 76 
  402b6a:	48 89 45 18          	mov    %rax,0x18(%rbp)
  402b6e:	66 c7 45 20 65 72    	movw   $0x7265,0x20(%rbp)
  402b74:	c6 45 22 00          	movb   $0x0,0x22(%rbp)
  402b78:	89 df                	mov    %ebx,%edi
  402b7a:	e8 c1 e0 ff ff       	callq  400c40 <close@plt>
  402b7f:	b8 ff ff ff ff       	mov    $0xffffffff,%eax
  402b84:	eb 16                	jmp    402b9c <init_driver+0x1c2>
  402b86:	89 df                	mov    %ebx,%edi
  402b88:	e8 b3 e0 ff ff       	callq  400c40 <close@plt>
  402b8d:	66 c7 45 00 4f 4b    	movw   $0x4b4f,0x0(%rbp)
  402b93:	c6 45 02 00          	movb   $0x0,0x2(%rbp)
  402b97:	b8 00 00 00 00       	mov    $0x0,%eax
  402b9c:	48 83 c4 18          	add    $0x18,%rsp
  402ba0:	5b                   	pop    %rbx
  402ba1:	5d                   	pop    %rbp
  402ba2:	c3                   	retq   

0000000000402ba3 <driver_post>:
  402ba3:	53                   	push   %rbx
  402ba4:	48 83 ec 10          	sub    $0x10,%rsp
  402ba8:	4c 89 cb             	mov    %r9,%rbx
  402bab:	45 85 c0             	test   %r8d,%r8d
  402bae:	74 22                	je     402bd2 <driver_post+0x2f>
  402bb0:	48 89 ce             	mov    %rcx,%rsi
  402bb3:	bf c1 34 40 00       	mov    $0x4034c1,%edi
  402bb8:	b8 00 00 00 00       	mov    $0x0,%eax
  402bbd:	e8 4e e0 ff ff       	callq  400c10 <printf@plt>
  402bc2:	66 c7 03 4f 4b       	movw   $0x4b4f,(%rbx)
  402bc7:	c6 43 02 00          	movb   $0x0,0x2(%rbx)
  402bcb:	b8 00 00 00 00       	mov    $0x0,%eax
  402bd0:	eb 39                	jmp    402c0b <driver_post+0x68>
  402bd2:	48 85 ff             	test   %rdi,%rdi
  402bd5:	74 26                	je     402bfd <driver_post+0x5a>
  402bd7:	80 3f 00             	cmpb   $0x0,(%rdi)
  402bda:	74 21                	je     402bfd <driver_post+0x5a>
  402bdc:	4c 89 0c 24          	mov    %r9,(%rsp)
  402be0:	49 89 c9             	mov    %rcx,%r9
  402be3:	49 89 d0             	mov    %rdx,%r8
  402be6:	48 89 f9             	mov    %rdi,%rcx
  402be9:	48 89 f2             	mov    %rsi,%rdx
  402bec:	be 9a 3c 00 00       	mov    $0x3c9a,%esi
  402bf1:	bf b5 34 40 00       	mov    $0x4034b5,%edi
  402bf6:	e8 9c f6 ff ff       	callq  402297 <submitr>
  402bfb:	eb 0e                	jmp    402c0b <driver_post+0x68>
  402bfd:	66 c7 03 4f 4b       	movw   $0x4b4f,(%rbx)
  402c02:	c6 43 02 00          	movb   $0x0,0x2(%rbx)
  402c06:	b8 00 00 00 00       	mov    $0x0,%eax
  402c0b:	48 83 c4 10          	add    $0x10,%rsp
  402c0f:	5b                   	pop    %rbx
  402c10:	c3                   	retq   

0000000000402c11 <check>:
  402c11:	89 f8                	mov    %edi,%eax
  402c13:	c1 e8 1c             	shr    $0x1c,%eax
  402c16:	85 c0                	test   %eax,%eax
  402c18:	74 1d                	je     402c37 <check+0x26>
  402c1a:	b9 00 00 00 00       	mov    $0x0,%ecx
  402c1f:	eb 0b                	jmp    402c2c <check+0x1b>
  402c21:	89 f8                	mov    %edi,%eax
  402c23:	d3 e8                	shr    %cl,%eax
  402c25:	3c 0a                	cmp    $0xa,%al
  402c27:	74 14                	je     402c3d <check+0x2c>
  402c29:	83 c1 08             	add    $0x8,%ecx
  402c2c:	83 f9 1f             	cmp    $0x1f,%ecx
  402c2f:	7e f0                	jle    402c21 <check+0x10>
  402c31:	b8 01 00 00 00       	mov    $0x1,%eax
  402c36:	c3                   	retq   
  402c37:	b8 00 00 00 00       	mov    $0x0,%eax
  402c3c:	c3                   	retq   
  402c3d:	b8 00 00 00 00       	mov    $0x0,%eax
  402c42:	c3                   	retq   

0000000000402c43 <gencookie>:
  402c43:	53                   	push   %rbx
  402c44:	83 c7 01             	add    $0x1,%edi
  402c47:	e8 64 df ff ff       	callq  400bb0 <srandom@plt>
  402c4c:	e8 7f e0 ff ff       	callq  400cd0 <random@plt>
  402c51:	89 c3                	mov    %eax,%ebx
  402c53:	89 c7                	mov    %eax,%edi
  402c55:	e8 b7 ff ff ff       	callq  402c11 <check>
  402c5a:	85 c0                	test   %eax,%eax
  402c5c:	74 ee                	je     402c4c <gencookie+0x9>
  402c5e:	89 d8                	mov    %ebx,%eax
  402c60:	5b                   	pop    %rbx
  402c61:	c3                   	retq   
  402c62:	66 2e 0f 1f 84 00 00 	nopw   %cs:0x0(%rax,%rax,1)
  402c69:	00 00 00 
  402c6c:	0f 1f 40 00          	nopl   0x0(%rax)

0000000000402c70 <__libc_csu_init>:
  402c70:	41 57                	push   %r15
  402c72:	41 89 ff             	mov    %edi,%r15d
  402c75:	41 56                	push   %r14
  402c77:	49 89 f6             	mov    %rsi,%r14
  402c7a:	41 55                	push   %r13
  402c7c:	49 89 d5             	mov    %rdx,%r13
  402c7f:	41 54                	push   %r12
  402c81:	4c 8d 25 88 21 20 00 	lea    0x202188(%rip),%r12        # 604e10 <__frame_dummy_init_array_entry>
  402c88:	55                   	push   %rbp
  402c89:	48 8d 2d 88 21 20 00 	lea    0x202188(%rip),%rbp        # 604e18 <__init_array_end>
  402c90:	53                   	push   %rbx
  402c91:	4c 29 e5             	sub    %r12,%rbp
  402c94:	31 db                	xor    %ebx,%ebx
  402c96:	48 c1 fd 03          	sar    $0x3,%rbp
  402c9a:	48 83 ec 08          	sub    $0x8,%rsp
  402c9e:	e8 cd de ff ff       	callq  400b70 <_init>
  402ca3:	48 85 ed             	test   %rbp,%rbp
  402ca6:	74 1e                	je     402cc6 <__libc_csu_init+0x56>
  402ca8:	0f 1f 84 00 00 00 00 	nopl   0x0(%rax,%rax,1)
  402caf:	00 
  402cb0:	4c 89 ea             	mov    %r13,%rdx
  402cb3:	4c 89 f6             	mov    %r14,%rsi
  402cb6:	44 89 ff             	mov    %r15d,%edi
  402cb9:	41 ff 14 dc          	callq  *(%r12,%rbx,8)
  402cbd:	48 83 c3 01          	add    $0x1,%rbx
  402cc1:	48 39 eb             	cmp    %rbp,%rbx
  402cc4:	75 ea                	jne    402cb0 <__libc_csu_init+0x40>
  402cc6:	48 83 c4 08          	add    $0x8,%rsp
  402cca:	5b                   	pop    %rbx
  402ccb:	5d                   	pop    %rbp
  402ccc:	41 5c                	pop    %r12
  402cce:	41 5d                	pop    %r13
  402cd0:	41 5e                	pop    %r14
  402cd2:	41 5f                	pop    %r15
  402cd4:	c3                   	retq   
  402cd5:	90                   	nop
  402cd6:	66 2e 0f 1f 84 00 00 	nopw   %cs:0x0(%rax,%rax,1)
  402cdd:	00 00 00 

0000000000402ce0 <__libc_csu_fini>:
  402ce0:	f3 c3                	repz retq 

Disassembly of section .fini:

0000000000402ce4 <_fini>:
  402ce4:	48 83 ec 08          	sub    $0x8,%rsp
  402ce8:	48 83 c4 08          	add    $0x8,%rsp
  402cec:	c3                   	retq   
